(isrc.solve.solver
Solver
p0
(dp1
S'gr'
p2
ccopy_reg
_reconstructor
p3
(cnetworkx.classes.graph
Graph
p4
c__builtin__
object
p5
Ntp6
Rp7
(dp8
S'node'
p9
(dp10
S'2779b930c577952ddf26f9558e8d071f'
p11
(dp12
sS'44192715b3fd48d7b83a505f8daf4f45'
p13
(dp14
sS'553b6ecd22cf3b5c6319b7220283938f'
p15
(dp16
sS'fafa738faa7c76e54a893ef1ca1722c8'
p17
(dp18
sS'92b30db9e9902d7f4a011cd5b9f397b7'
p19
(dp20
sS'74431928ab0e62aaa218f51f57173324'
p21
(dp22
sS'b8dc3317274d04b6168ec53b6310131a'
p23
(dp24
sS'c4788a9a14c137c3088f3791b1f99f24'
p25
(dp26
sS'fcddcb29a7c91e31a1af38d66331d05f'
p27
(dp28
sS'64569b41fa128e595fd42de311bc96f5'
p29
(dp30
ssS'graph'
p31
(dp32
S'finals'
p33
(lp34
ssS'edge'
p35
(dp36
g11
(dp37
g21
(dp38
sS'553b6ecd22cf3b5c6319b7220283938f'
p39
(dp40
ssg13
(dp41
g39
(dp42
sS'fafa738faa7c76e54a893ef1ca1722c8'
p43
(dp44
ssg15
(dp45
g11
g40
sg13
g42
sS'fcddcb29a7c91e31a1af38d66331d05f'
p46
(dp47
ssg17
(dp48
S'44192715b3fd48d7b83a505f8daf4f45'
p49
g44
sg46
(dp50
sg29
(dp51
ssg19
(dp52
g25
(dp53
ssg21
(dp54
S'2779b930c577952ddf26f9558e8d071f'
p55
g38
ssg23
(dp56
S'64569b41fa128e595fd42de311bc96f5'
p57
(dp58
ssg25
(dp59
g19
g53
sg27
(dp60
ssg27
(dp61
S'c4788a9a14c137c3088f3791b1f99f24'
p62
g60
sg15
g47
sg17
g50
ssg29
(dp63
g23
g58
sS'fafa738faa7c76e54a893ef1ca1722c8'
p64
g51
sssS'adj'
p65
g36
sbsS'save_tmp'
p66
I01
sS'use_cloud'
p67
I01
sS'state'
p68
(isrc.logic.state
State
p69
(dp70
S'map'
p71
(isrc.logic.map
Map
p72
(dp73
S'tiles'
p74
(lp75
(lp76
(isrc.logic.tile
Tile
p77
(dp78
g71
g72
sS'color'
p79
(I20
I20
I20
tp80
sS'surface'
p81
NsS'v'
p82
I0
sS'y'
p83
I0
sS'x'
p84
I0
sS'se'
p85
(isrc.logic.snake
SnakeElement
p86
(dp87
g83
I0
sg84
I0
sS'snake'
p88
(isrc.logic.snake
Snake
p89
(dp90
g79
(I0
I0
I255
tp91
sg71
g72
sS'elements'
p92
(lp93
(isrc.logic.snake
SnakeElement
p94
(dp95
g83
I5
sg84
I4
sg88
g89
sS'order'
p96
Nsba(isrc.logic.snake
SnakeElement
p97
(dp98
g83
I5
sg84
I3
sg88
g89
sg96
Nsba(isrc.logic.snake
SnakeElement
p99
(dp100
g83
I5
sg84
I2
sg88
g89
sg96
Nsba(isrc.logic.snake
SnakeElement
p101
(dp102
g83
I5
sg84
I1
sg88
g89
sg96
Nsba(isrc.logic.snake
SnakeElement
p103
(dp104
g83
I5
sg84
I0
sg88
g89
sg96
Nsba(isrc.logic.snake
SnakeElement
p105
(dp106
g83
I4
sg84
I0
sg88
g89
sg96
Nsba(isrc.logic.snake
SnakeElement
p107
(dp108
g83
I3
sg84
I0
sg88
g89
sg96
Nsba(isrc.logic.snake
SnakeElement
p109
(dp110
g83
I2
sg84
I0
sg88
g89
sg96
Nsba(isrc.logic.snake
SnakeElement
p111
(dp112
g83
I1
sg84
I0
sg88
g89
sg96
Nsbag86
a(isrc.logic.snake
SnakeElement
p113
(dp114
g83
I0
sg84
I1
sg88
g89
sg96
Nsba(isrc.logic.snake
SnakeElement
p115
(dp116
g83
I0
sg84
I2
sg88
g89
sg96
Nsba(isrc.logic.snake
SnakeElement
p117
(dp118
g83
I0
sg84
I3
sg88
g89
sg96
Nsba(isrc.logic.snake
SnakeElement
p119
(dp120
g83
I1
sg84
I3
sg88
g89
sg96
Nsba(isrc.logic.snake
SnakeElement
p121
(dp122
g83
I2
sg84
I3
sg88
g89
sg96
Nsba(isrc.logic.snake
SnakeElement
p123
(dp124
g83
I3
sg84
I3
sg88
g89
sg96
Nsba(isrc.logic.snake
SnakeElement
p125
(dp126
g83
I4
sg84
I3
sg88
g89
sg96
Nsbasg81
Nsg82
VB
p127
sbsg96
Nsbsba(isrc.logic.tile
Tile
p128
(dp129
g71
g72
sg79
g80
sg81
Nsg82
I0
sg83
I1
sg84
I0
sg85
g111
sba(isrc.logic.tile
Tile
p130
(dp131
g71
g72
sg79
g80
sg81
Nsg82
I0
sg83
I2
sg84
I0
sg85
g109
sba(isrc.logic.tile
Tile
p132
(dp133
g71
g72
sg79
g80
sg81
Nsg82
I0
sg83
I3
sg84
I0
sg85
g107
sba(isrc.logic.tile
Tile
p134
(dp135
g71
g72
sg79
g80
sg81
Nsg82
I0
sg83
I4
sg84
I0
sg85
g105
sba(isrc.logic.tile
Tile
p136
(dp137
g71
g72
sg79
g80
sg81
Nsg82
I0
sg83
I5
sg84
I0
sg85
g103
sbaa(lp138
(isrc.logic.tile
Tile
p139
(dp140
g71
g72
sg79
g80
sg81
Nsg82
I0
sg83
I0
sg84
I1
sg85
g113
sba(isrc.logic.tile
Tile
p141
(dp142
g71
g72
sg79
(I50
I50
I50
tp143
sg81
Nsg82
I1
sg83
I1
sg84
I1
sg85
Nsba(isrc.logic.tile
Tile
p144
(dp145
g71
g72
sg79
g143
sg81
Nsg82
I1
sg83
I2
sg84
I1
sg85
Nsba(isrc.logic.tile
Tile
p146
(dp147
g71
g72
sg79
g143
sg81
Nsg82
I1
sg83
I3
sg84
I1
sg85
Nsba(isrc.logic.tile
Tile
p148
(dp149
g71
g72
sg79
g143
sg81
Nsg82
I1
sg83
I4
sg84
I1
sg85
Nsba(isrc.logic.tile
Tile
p150
(dp151
g71
g72
sg79
g80
sg81
Nsg82
I0
sg83
I5
sg84
I1
sg85
g101
sbaa(lp152
(isrc.logic.tile
Tile
p153
(dp154
g71
g72
sg79
g80
sg81
Nsg82
I0
sg83
I0
sg84
I2
sg85
g115
sba(isrc.logic.tile
Tile
p155
(dp156
g71
g72
sg79
g143
sg81
Nsg82
I1
sg83
I1
sg84
I2
sg85
Nsba(isrc.logic.tile
Tile
p157
(dp158
g71
g72
sg79
g80
sg81
Nsg82
I0
sg83
I2
sg84
I2
sg85
(isrc.logic.snake
SnakeElement
p159
(dp160
g83
I2
sg84
I2
sg88
(isrc.logic.snake
Snake
p161
(dp162
g79
(I0
I255
I0
tp163
sg71
g72
sg92
(lp164
g159
a(isrc.logic.snake
SnakeElement
p165
(dp166
g83
I3
sg84
I2
sg88
g161
sg96
Nsbasg81
Nsg82
VG
p167
sbsg96
Nsbsba(isrc.logic.tile
Tile
p168
(dp169
g71
g72
sg79
g80
sg81
Nsg82
I0
sg83
I3
sg84
I2
sg85
g165
sba(isrc.logic.tile
Tile
p170
(dp171
g71
g72
sg79
g143
sg81
Nsg82
I1
sg83
I4
sg84
I2
sg85
Nsba(isrc.logic.tile
Tile
p172
(dp173
g71
g72
sg79
g80
sg81
Nsg82
I0
sg83
I5
sg84
I2
sg85
g99
sbaa(lp174
(isrc.logic.tile
Tile
p175
(dp176
g71
g72
sg79
g80
sg81
Nsg82
I0
sg83
I0
sg84
I3
sg85
g117
sba(isrc.logic.tile
Tile
p177
(dp178
g71
g72
sg79
g80
sg81
Nsg82
I0
sg83
I1
sg84
I3
sg85
g119
sba(isrc.logic.tile
Tile
p179
(dp180
g71
g72
sg79
g80
sg81
Nsg82
I0
sg83
I2
sg84
I3
sg85
g121
sba(isrc.logic.tile
Tile
p181
(dp182
g71
g72
sg79
g80
sg81
Nsg82
I0
sg83
I3
sg84
I3
sg85
g123
sba(isrc.logic.tile
Tile
p183
(dp184
g71
g72
sg79
g80
sg81
Nsg82
I0
sg83
I4
sg84
I3
sg85
g125
sba(isrc.logic.tile
Tile
p185
(dp186
g71
g72
sg79
g80
sg81
Nsg82
I0
sg83
I5
sg84
I3
sg85
g97
sbaa(lp187
(isrc.logic.tile
Tile
p188
(dp189
g71
g72
sg79
g80
sg81
Nsg82
I0
sg83
I0
sg84
I4
sg85
Nsba(isrc.logic.tile
Tile
p190
(dp191
g71
g72
sg79
g143
sg81
Nsg82
I1
sg83
I1
sg84
I4
sg85
Nsba(isrc.logic.tile
Tile
p192
(dp193
g71
g72
sg79
g80
sg81
Nsg82
I0
sg83
I2
sg84
I4
sg85
Nsba(isrc.logic.tile
Tile
p194
(dp195
g71
g72
sg79
g80
sg81
Nsg82
I0
sg83
I3
sg84
I4
sg85
Nsba(isrc.logic.tile
Tile
p196
(dp197
g71
g72
sg79
g143
sg81
Nsg82
I1
sg83
I4
sg84
I4
sg85
Nsba(isrc.logic.tile
Tile
p198
(dp199
g71
g72
sg79
g80
sg81
Nsg82
I0
sg83
I5
sg84
I4
sg85
g94
sbaa(lp200
(isrc.logic.tile
Tile
p201
(dp202
g71
g72
sg79
g80
sg81
Nsg82
I0
sg83
I0
sg84
I5
sg85
Nsba(isrc.logic.tile
Tile
p203
(dp204
g71
g72
sg79
g143
sg81
Nsg82
I1
sg83
I1
sg84
I5
sg85
Nsba(isrc.logic.tile
Tile
p205
(dp206
g71
g72
sg79
(I0
I102
I0
tp207
sg81
Nsg82
Vg
p208
sg83
I2
sg84
I5
sg85
Nsba(isrc.logic.tile
Tile
p209
(dp210
g71
g72
sg79
g207
sg81
Nsg82
Vg
p211
sg83
I3
sg84
I5
sg85
Nsba(isrc.logic.tile
Tile
p212
(dp213
g71
g72
sg79
g143
sg81
Nsg82
I1
sg83
I4
sg84
I5
sg85
Nsba(isrc.logic.tile
Tile
p214
(dp215
g71
g72
sg79
g80
sg81
Nsg82
I0
sg83
I5
sg84
I5
sg85
Nsbaasg81
NsS'n'
p216
I6
sS'size_px'
p217
I360
sS'y_offset'
p218
I0
sS'x_offset'
p219
I0
sbsS'move'
p220
NsS'snakes'
p221
(lp222
g89
ag161
asS'parent_state'
p223
(isrc.logic.state
State
p224
(dp225
g71
(isrc.logic.map
Map
p226
(dp227
g74
(lp228
(lp229
(isrc.logic.tile
Tile
p230
(dp231
g71
g226
sg79
g80
sg81
Nsg82
I0
sg83
I0
sg84
I0
sg85
(isrc.logic.snake
SnakeElement
p232
(dp233
g83
I0
sg84
I0
sg88
(isrc.logic.snake
Snake
p234
(dp235
g79
g91
sg71
g226
sg92
(lp236
(isrc.logic.snake
SnakeElement
p237
(dp238
g83
I5
sg84
I4
sg88
g234
sg96
Nsba(isrc.logic.snake
SnakeElement
p239
(dp240
g83
I5
sg84
I3
sg88
g234
sg96
Nsba(isrc.logic.snake
SnakeElement
p241
(dp242
g83
I5
sg84
I2
sg88
g234
sg96
Nsba(isrc.logic.snake
SnakeElement
p243
(dp244
g83
I5
sg84
I1
sg88
g234
sg96
Nsba(isrc.logic.snake
SnakeElement
p245
(dp246
g83
I5
sg84
I0
sg88
g234
sg96
Nsba(isrc.logic.snake
SnakeElement
p247
(dp248
g83
I4
sg84
I0
sg88
g234
sg96
Nsba(isrc.logic.snake
SnakeElement
p249
(dp250
g83
I3
sg84
I0
sg88
g234
sg96
Nsba(isrc.logic.snake
SnakeElement
p251
(dp252
g83
I2
sg84
I0
sg88
g234
sg96
Nsba(isrc.logic.snake
SnakeElement
p253
(dp254
g83
I1
sg84
I0
sg88
g234
sg96
Nsbag232
a(isrc.logic.snake
SnakeElement
p255
(dp256
g83
I0
sg84
I1
sg88
g234
sg96
Nsba(isrc.logic.snake
SnakeElement
p257
(dp258
g83
I0
sg84
I2
sg88
g234
sg96
Nsba(isrc.logic.snake
SnakeElement
p259
(dp260
g83
I0
sg84
I3
sg88
g234
sg96
Nsba(isrc.logic.snake
SnakeElement
p261
(dp262
g83
I1
sg84
I3
sg88
g234
sg96
Nsba(isrc.logic.snake
SnakeElement
p263
(dp264
g83
I2
sg84
I3
sg88
g234
sg96
Nsba(isrc.logic.snake
SnakeElement
p265
(dp266
g83
I3
sg84
I3
sg88
g234
sg96
Nsba(isrc.logic.snake
SnakeElement
p267
(dp268
g83
I4
sg84
I3
sg88
g234
sg96
Nsbasg81
Nsg82
VB
p269
sbsg96
Nsbsba(isrc.logic.tile
Tile
p270
(dp271
g71
g226
sg79
g80
sg81
Nsg82
I0
sg83
I1
sg84
I0
sg85
g253
sba(isrc.logic.tile
Tile
p272
(dp273
g71
g226
sg79
g80
sg81
Nsg82
I0
sg83
I2
sg84
I0
sg85
g251
sba(isrc.logic.tile
Tile
p274
(dp275
g71
g226
sg79
g80
sg81
Nsg82
I0
sg83
I3
sg84
I0
sg85
g249
sba(isrc.logic.tile
Tile
p276
(dp277
g71
g226
sg79
g80
sg81
Nsg82
I0
sg83
I4
sg84
I0
sg85
g247
sba(isrc.logic.tile
Tile
p278
(dp279
g71
g226
sg79
g80
sg81
Nsg82
I0
sg83
I5
sg84
I0
sg85
g245
sbaa(lp280
(isrc.logic.tile
Tile
p281
(dp282
g71
g226
sg79
g80
sg81
Nsg82
I0
sg83
I0
sg84
I1
sg85
g255
sba(isrc.logic.tile
Tile
p283
(dp284
g71
g226
sg79
g143
sg81
Nsg82
I1
sg83
I1
sg84
I1
sg85
Nsba(isrc.logic.tile
Tile
p285
(dp286
g71
g226
sg79
g143
sg81
Nsg82
I1
sg83
I2
sg84
I1
sg85
Nsba(isrc.logic.tile
Tile
p287
(dp288
g71
g226
sg79
g143
sg81
Nsg82
I1
sg83
I3
sg84
I1
sg85
Nsba(isrc.logic.tile
Tile
p289
(dp290
g71
g226
sg79
g143
sg81
Nsg82
I1
sg83
I4
sg84
I1
sg85
Nsba(isrc.logic.tile
Tile
p291
(dp292
g71
g226
sg79
g80
sg81
Nsg82
I0
sg83
I5
sg84
I1
sg85
g243
sbaa(lp293
(isrc.logic.tile
Tile
p294
(dp295
g71
g226
sg79
g80
sg81
Nsg82
I0
sg83
I0
sg84
I2
sg85
g257
sba(isrc.logic.tile
Tile
p296
(dp297
g71
g226
sg79
g143
sg81
Nsg82
I1
sg83
I1
sg84
I2
sg85
Nsba(isrc.logic.tile
Tile
p298
(dp299
g71
g226
sg79
g80
sg81
Nsg82
I0
sg83
I2
sg84
I2
sg85
(isrc.logic.snake
SnakeElement
p300
(dp301
g83
I2
sg84
I2
sg88
(isrc.logic.snake
Snake
p302
(dp303
g79
g163
sg71
g226
sg92
(lp304
g300
a(isrc.logic.snake
SnakeElement
p305
(dp306
g83
I3
sg84
I2
sg88
g302
sg96
Nsbasg81
Nsg82
VG
p307
sbsg96
Nsbsba(isrc.logic.tile
Tile
p308
(dp309
g71
g226
sg79
g80
sg81
Nsg82
I0
sg83
I3
sg84
I2
sg85
g305
sba(isrc.logic.tile
Tile
p310
(dp311
g71
g226
sg79
g143
sg81
Nsg82
I1
sg83
I4
sg84
I2
sg85
Nsba(isrc.logic.tile
Tile
p312
(dp313
g71
g226
sg79
g80
sg81
Nsg82
I0
sg83
I5
sg84
I2
sg85
g241
sbaa(lp314
(isrc.logic.tile
Tile
p315
(dp316
g71
g226
sg79
g80
sg81
Nsg82
I0
sg83
I0
sg84
I3
sg85
g259
sba(isrc.logic.tile
Tile
p317
(dp318
g71
g226
sg79
g80
sg81
Nsg82
I0
sg83
I1
sg84
I3
sg85
g261
sba(isrc.logic.tile
Tile
p319
(dp320
g71
g226
sg79
g80
sg81
Nsg82
I0
sg83
I2
sg84
I3
sg85
g263
sba(isrc.logic.tile
Tile
p321
(dp322
g71
g226
sg79
g80
sg81
Nsg82
I0
sg83
I3
sg84
I3
sg85
g265
sba(isrc.logic.tile
Tile
p323
(dp324
g71
g226
sg79
g80
sg81
Nsg82
I0
sg83
I4
sg84
I3
sg85
g267
sba(isrc.logic.tile
Tile
p325
(dp326
g71
g226
sg79
g80
sg81
Nsg82
I0
sg83
I5
sg84
I3
sg85
g239
sbaa(lp327
(isrc.logic.tile
Tile
p328
(dp329
g71
g226
sg79
g80
sg81
Nsg82
I0
sg83
I0
sg84
I4
sg85
Nsba(isrc.logic.tile
Tile
p330
(dp331
g71
g226
sg79
g143
sg81
Nsg82
I1
sg83
I1
sg84
I4
sg85
Nsba(isrc.logic.tile
Tile
p332
(dp333
g71
g226
sg79
g80
sg81
Nsg82
I0
sg83
I2
sg84
I4
sg85
Nsba(isrc.logic.tile
Tile
p334
(dp335
g71
g226
sg79
g80
sg81
Nsg82
I0
sg83
I3
sg84
I4
sg85
Nsba(isrc.logic.tile
Tile
p336
(dp337
g71
g226
sg79
g143
sg81
Nsg82
I1
sg83
I4
sg84
I4
sg85
Nsba(isrc.logic.tile
Tile
p338
(dp339
g71
g226
sg79
g80
sg81
Nsg82
I0
sg83
I5
sg84
I4
sg85
g237
sbaa(lp340
(isrc.logic.tile
Tile
p341
(dp342
g71
g226
sg79
g80
sg81
Nsg82
I0
sg83
I0
sg84
I5
sg85
Nsba(isrc.logic.tile
Tile
p343
(dp344
g71
g226
sg79
g143
sg81
Nsg82
I1
sg83
I1
sg84
I5
sg85
Nsba(isrc.logic.tile
Tile
p345
(dp346
g71
g226
sg79
g207
sg81
Nsg82
Vg
p347
sg83
I2
sg84
I5
sg85
Nsba(isrc.logic.tile
Tile
p348
(dp349
g71
g226
sg79
g207
sg81
Nsg82
Vg
p350
sg83
I3
sg84
I5
sg85
Nsba(isrc.logic.tile
Tile
p351
(dp352
g71
g226
sg79
g143
sg81
Nsg82
I1
sg83
I4
sg84
I5
sg85
Nsba(isrc.logic.tile
Tile
p353
(dp354
g71
g226
sg79
g80
sg81
Nsg82
I0
sg83
I5
sg84
I5
sg85
Nsbaasg81
Nsg216
I6
sg217
I360
sg218
I0
sg219
I0
sbsg220
Nsg221
(lp355
g234
ag302
asg223
NsbsbsS'debug_info'
p356
NsS'MAX_RECURSION_DEPTH'
p357
I10000
sS'l_shortest'
p358
NsS'sols'
p359
(lp360
sS'use_temp'
p361
I01
sS'quit_on_first'
p362
I00
sb.