(isrc.solve.solver
Solver
p0
(dp1
S'gr'
p2
ccopy_reg
_reconstructor
p3
(cnetworkx.classes.graph
Graph
p4
c__builtin__
object
p5
Ntp6
Rp7
(dp8
S'node'
p9
(dp10
S'b22b465b20eae6353c20028202a6508b'
p11
(dp12
S'complete'
p13
I01
ssS'b02a4cbef179be7598817d165222b53e'
p14
(dp15
sS'ca6a18cb8ee529db72af1669159bcd66'
p16
(dp17
sS'9c1c1ffb81987ac29c8328532be45cca'
p18
(dp19
sS'13f81b23d5b84f52112e6d9c3f8bc785'
p20
(dp21
sS'5f3b99d62f8776c8d6c431e03c22b2d1'
p22
(dp23
sS'b0e2b40c2f9051d7a2c2c3468151cc6e'
p24
(dp25
sS'13f63e3b341432b05b5201e18f632b60'
p26
(dp27
sS'131031a0b385f82f79091611c040aadc'
p28
(dp29
g13
I01
ssS'f92c23e344e0161f52bff342e31efe3a'
p30
(dp31
sS'87eb1046b9a161856f40658a0ee83c74'
p32
(dp33
sS'd4a22f85aae0b3fa8babce98f22891be'
p34
(dp35
sS'aafb294ae104394a59e2b1a997abf287'
p36
(dp37
sS'442a5dc8308332f160085318682c8de9'
p38
(dp39
g13
I01
ssS'13589e1d686d4f8278e671821795b2ee'
p40
(dp41
sS'd2f57a7bd583eb546233ef4fc56d5144'
p42
(dp43
sS'92ec87ba976d5f38f35e651840bc7d19'
p44
(dp45
sS'c2c1afeae5f6f3808b2915524093128a'
p46
(dp47
sS'ffa13f05ddf539eada83b2dda18bc8d3'
p48
(dp49
sS'870c1771841966d94c81b596225c9124'
p50
(dp51
sS'68525d864e152d2d8fe01bcbdbe75ab1'
p52
(dp53
sS'cf3295283159fa633fdb6e13af4443a4'
p54
(dp55
sS'44497c30888472c1e73ff8324f47236a'
p56
(dp57
sS'63c2a78abcf4a57f94b5e0ab7f08f689'
p58
(dp59
g13
I01
ssS'6388a6f1c51a25e55b88e2044c4ecf99'
p60
(dp61
g13
I01
ssS'd5cfae69adbdbeef72163425a7b332dc'
p62
(dp63
sS'fe430dda02d166c71f1b2ae1ef8e084c'
p64
(dp65
sS'5b9fb9fec8dde44d9e06892eeb686a31'
p66
(dp67
sS'9638cd77a27d47692de95452e562b8a3'
p68
(dp69
sS'c59d089f026e8ea67bed9525da5cd7e1'
p70
(dp71
sS'537a76913722330c31b12d216e44e8d1'
p72
(dp73
sS'e01516aaba1bbfc720311be77d2026ec'
p74
(dp75
sS'7c684fcb77efb2e7a5f15f00a31e2e8f'
p76
(dp77
sS'1f7a0cb6616121d98b77d442684ec9b6'
p78
(dp79
sS'a533c97204ba45087e0d47492b7af9e0'
p80
(dp81
sS'7b485b5e936e603267eebbe1365ccb6b'
p82
(dp83
g13
I01
sssS'graph'
p84
(dp85
S'finals'
p86
(lp87
g28
ag38
ag11
ag60
ag58
ag82
assS'edge'
p88
(dp89
g11
(dp90
g58
(dp91
sS'442a5dc8308332f160085318682c8de9'
p92
(dp93
sg14
(dp94
ssg14
(dp95
S'b22b465b20eae6353c20028202a6508b'
p96
g94
ssg16
(dp97
S'c2c1afeae5f6f3808b2915524093128a'
p98
(dp99
sS'9c1c1ffb81987ac29c8328532be45cca'
p100
(dp101
ssg18
(dp102
S'44497c30888472c1e73ff8324f47236a'
p103
(dp104
sg16
g101
ssg20
(dp105
S'68525d864e152d2d8fe01bcbdbe75ab1'
p106
(dp107
sg64
(dp108
ssg22
(dp109
S'ffa13f05ddf539eada83b2dda18bc8d3'
p110
(dp111
sg54
(dp112
sg68
(dp113
ssg24
(dp114
g110
(dp115
sS'cf3295283159fa633fdb6e13af4443a4'
p116
(dp117
ssg26
(dp118
S'e01516aaba1bbfc720311be77d2026ec'
p119
(dp120
ssg28
(dp121
S'f92c23e344e0161f52bff342e31efe3a'
p122
(dp123
sg38
(dp124
ssg30
(dp125
g28
g123
sS'1f7a0cb6616121d98b77d442684ec9b6'
p126
(dp127
sg119
(dp128
ssg32
(dp129
g48
(dp130
sS'd5cfae69adbdbeef72163425a7b332dc'
p131
(dp132
ssg34
(dp133
g72
(dp134
sg46
(dp135
sg42
(dp136
ssg36
(dp137
g40
(dp138
sg116
(dp139
ssg38
(dp140
S'131031a0b385f82f79091611c040aadc'
p141
g124
sg60
(dp142
sg11
g93
ssg40
(dp143
g70
(dp144
sS'aafb294ae104394a59e2b1a997abf287'
p145
g138
ssg42
(dp146
g34
g136
sg62
(dp147
ssg44
(dp148
g76
(dp149
sS'7b485b5e936e603267eebbe1365ccb6b'
p150
(dp151
ssg46
(dp152
S'ca6a18cb8ee529db72af1669159bcd66'
p153
g99
sS'd4a22f85aae0b3fa8babce98f22891be'
p154
g135
ssg48
(dp155
g24
g115
sS'87eb1046b9a161856f40658a0ee83c74'
p156
g130
sg22
g111
ssg50
(dp157
S'537a76913722330c31b12d216e44e8d1'
p158
(dp159
ssg52
(dp160
S'a533c97204ba45087e0d47492b7af9e0'
p161
(dp162
sg20
g107
ssg54
(dp163
S'b0e2b40c2f9051d7a2c2c3468151cc6e'
p164
g117
sg36
g139
sS'5f3b99d62f8776c8d6c431e03c22b2d1'
p165
g112
ssg56
(dp166
S'7c684fcb77efb2e7a5f15f00a31e2e8f'
p167
(dp168
sg18
g104
ssg58
(dp169
S'6388a6f1c51a25e55b88e2044c4ecf99'
p170
(dp171
sg96
g91
sg82
(dp172
ssg60
(dp173
S'63c2a78abcf4a57f94b5e0ab7f08f689'
p174
g171
sg92
g142
ssg62
(dp175
g158
(dp176
sg32
g132
sg42
g147
ssg64
(dp177
g66
(dp178
sS'13f81b23d5b84f52112e6d9c3f8bc785'
p179
g108
ssg66
(dp180
g78
(dp181
sg74
(dp182
sS'fe430dda02d166c71f1b2ae1ef8e084c'
p183
g178
ssg68
(dp184
g165
g113
ssg70
(dp185
g80
(dp186
sS'13589e1d686d4f8278e671821795b2ee'
p187
g144
ssg72
(dp188
g50
g159
sg154
g134
sS'd5cfae69adbdbeef72163425a7b332dc'
p189
g176
ssg74
(dp190
S'5b9fb9fec8dde44d9e06892eeb686a31'
p191
g182
sg30
g128
sg26
g120
ssg76
(dp192
g56
g168
sS'92ec87ba976d5f38f35e651840bc7d19'
p193
g149
ssg78
(dp194
g191
g181
sg122
g127
ssg80
(dp195
S'c59d089f026e8ea67bed9525da5cd7e1'
p196
g186
sg52
g162
ssg82
(dp197
g174
g172
sg44
g151
sssS'adj'
p198
g89
sbsS'save_tmp'
p199
I01
sS'use_cloud'
p200
I01
sS'state'
p201
(isrc.logic.state
State
p202
(dp203
S'map'
p204
(isrc.logic.map
Map
p205
(dp206
S'tiles'
p207
(lp208
(lp209
(isrc.logic.tile
Tile
p210
(dp211
g204
g205
sS'color'
p212
(I0
I102
I0
tp213
sS'surface'
p214
NsS'v'
p215
Vg
p216
sS'y'
p217
I0
sS'x'
p218
I0
sS'se'
p219
Nsba(isrc.logic.tile
Tile
p220
(dp221
g204
g205
sg212
(I50
I50
I50
tp222
sg214
Nsg215
I1
sg217
I1
sg218
I0
sg219
Nsba(isrc.logic.tile
Tile
p223
(dp224
g204
g205
sg212
(I20
I20
I20
tp225
sg214
Nsg215
I0
sg217
I2
sg218
I0
sg219
(isrc.logic.snake
SnakeElement
p226
(dp227
g217
I2
sg218
I0
sS'snake'
p228
(isrc.logic.snake
Snake
p229
(dp230
g212
(I0
I255
I0
tp231
sg204
g205
sS'elements'
p232
(lp233
g226
a(isrc.logic.snake
SnakeElement
p234
(dp235
g217
I2
sg218
I1
sg228
g229
sS'order'
p236
Nsba(isrc.logic.snake
SnakeElement
p237
(dp238
g217
I2
sg218
I2
sg228
g229
sg236
Nsbasg214
Nsg215
VG
p239
sbsg236
Nsbsbaa(lp240
(isrc.logic.tile
Tile
p241
(dp242
g204
g205
sg212
g213
sg214
Nsg215
Vg
p243
sg217
I0
sg218
I1
sg219
Nsba(isrc.logic.tile
Tile
p244
(dp245
g204
g205
sg212
g225
sg214
Nsg215
I0
sg217
I1
sg218
I1
sg219
(isrc.logic.snake
SnakeElement
p246
(dp247
g217
I1
sg218
I1
sg228
(isrc.logic.snake
Snake
p248
(dp249
g212
(I0
I0
I255
tp250
sg204
g205
sg232
(lp251
g246
a(isrc.logic.snake
SnakeElement
p252
(dp253
g217
I1
sg218
I2
sg228
g248
sg236
Nsba(isrc.logic.snake
SnakeElement
p254
(dp255
g217
I0
sg218
I2
sg228
g248
sg236
Nsbasg214
Nsg215
VB
p256
sbsg236
Nsbsba(isrc.logic.tile
Tile
p257
(dp258
g204
g205
sg212
g225
sg214
Nsg215
I0
sg217
I2
sg218
I1
sg219
g234
sbaa(lp259
(isrc.logic.tile
Tile
p260
(dp261
g204
g205
sg212
g213
sg214
Nsg215
Vg
p262
sg217
I0
sg218
I2
sg219
g254
sba(isrc.logic.tile
Tile
p263
(dp264
g204
g205
sg212
g225
sg214
Nsg215
I0
sg217
I1
sg218
I2
sg219
g252
sba(isrc.logic.tile
Tile
p265
(dp266
g204
g205
sg212
g225
sg214
Nsg215
I0
sg217
I2
sg218
I2
sg219
g237
sbaasg214
NsS'n'
p267
I3
sS'size_px'
p268
I180
sS'y_offset'
p269
I0
sS'x_offset'
p270
I0
sbsS'move'
p271
NsS'snakes'
p272
(lp273
g248
ag229
asS'parent_state'
p274
(isrc.logic.state
State
p275
(dp276
g204
(isrc.logic.map
Map
p277
(dp278
g207
(lp279
(lp280
(isrc.logic.tile
Tile
p281
(dp282
g204
g277
sg212
g213
sg214
Nsg215
Vg
p283
sg217
I0
sg218
I0
sg219
Nsba(isrc.logic.tile
Tile
p284
(dp285
g204
g277
sg212
g222
sg214
Nsg215
I1
sg217
I1
sg218
I0
sg219
Nsba(isrc.logic.tile
Tile
p286
(dp287
g204
g277
sg212
g225
sg214
Nsg215
I0
sg217
I2
sg218
I0
sg219
(isrc.logic.snake
SnakeElement
p288
(dp289
g217
I2
sg218
I0
sg228
(isrc.logic.snake
Snake
p290
(dp291
g212
g231
sg204
g277
sg232
(lp292
g288
a(isrc.logic.snake
SnakeElement
p293
(dp294
g217
I2
sg218
I1
sg228
g290
sg236
Nsba(isrc.logic.snake
SnakeElement
p295
(dp296
g217
I2
sg218
I2
sg228
g290
sg236
Nsbasg214
Nsg215
VG
p297
sbsg236
Nsbsbaa(lp298
(isrc.logic.tile
Tile
p299
(dp300
g204
g277
sg212
g213
sg214
Nsg215
Vg
p301
sg217
I0
sg218
I1
sg219
Nsba(isrc.logic.tile
Tile
p302
(dp303
g204
g277
sg212
g225
sg214
Nsg215
I0
sg217
I1
sg218
I1
sg219
(isrc.logic.snake
SnakeElement
p304
(dp305
g217
I1
sg218
I1
sg228
(isrc.logic.snake
Snake
p306
(dp307
g212
g250
sg204
g277
sg232
(lp308
g304
a(isrc.logic.snake
SnakeElement
p309
(dp310
g217
I1
sg218
I2
sg228
g306
sg236
Nsba(isrc.logic.snake
SnakeElement
p311
(dp312
g217
I0
sg218
I2
sg228
g306
sg236
Nsbasg214
Nsg215
VB
p313
sbsg236
Nsbsba(isrc.logic.tile
Tile
p314
(dp315
g204
g277
sg212
g225
sg214
Nsg215
I0
sg217
I2
sg218
I1
sg219
g293
sbaa(lp316
(isrc.logic.tile
Tile
p317
(dp318
g204
g277
sg212
g213
sg214
Nsg215
Vg
p319
sg217
I0
sg218
I2
sg219
g311
sba(isrc.logic.tile
Tile
p320
(dp321
g204
g277
sg212
g225
sg214
Nsg215
I0
sg217
I1
sg218
I2
sg219
g309
sba(isrc.logic.tile
Tile
p322
(dp323
g204
g277
sg212
g225
sg214
Nsg215
I0
sg217
I2
sg218
I2
sg219
g295
sbaasg214
Nsg267
I3
sg268
I180
sg269
I0
sg270
I0
sbsg271
Nsg272
(lp324
g306
ag290
asg274
NsbsbsS'debug_info'
p325
NsS'MAX_RECURSION_DEPTH'
p326
I10000
sS'l_shortest'
p327
I8
sS'sols'
p328
(lp329
(lp330
S'd2f57a7bd583eb546233ef4fc56d5144'
p331
ag34
ag46
ag153
ag100
ag103
ag167
ag193
ag150
aa(lp332
g331
ag34
ag46
ag153
ag100
ag103
ag167
ag193
ag150
ag174
aa(lp333
g331
ag34
ag46
ag153
ag100
ag103
ag167
ag193
ag150
ag174
ag96
aa(lp334
g331
ag34
ag46
ag153
ag100
ag103
ag167
ag193
ag150
ag174
ag170
aa(lp335
g331
ag34
ag46
ag153
ag100
ag103
ag167
ag193
ag150
ag174
ag170
ag92
aa(lp336
g331
ag34
ag46
ag153
ag100
ag103
ag167
ag193
ag150
ag174
ag170
ag92
ag141
aasS'use_temp'
p337
I01
sS'quit_on_first'
p338
I00
sb.