(isrc.solve.solver
Solver
p0
(dp1
S'gr'
p2
ccopy_reg
_reconstructor
p3
(cnetworkx.classes.graph
Graph
p4
c__builtin__
object
p5
Ntp6
Rp7
(dp8
S'node'
p9
(dp10
S'04bc1f782e608264e4be4c6f837f67f6'
p11
(dp12
sS'36b4a4bb57b30e30cde93c581dfdecf3'
p13
(dp14
sS'6c53f6165ffea99042506a224a9dd2ca'
p15
(dp16
ssS'graph'
p17
(dp18
S'finals'
p19
(lp20
ssS'edge'
p21
(dp22
g11
(dp23
g13
(dp24
ssg13
(dp25
g11
g24
sg15
(dp26
ssg15
(dp27
S'36b4a4bb57b30e30cde93c581dfdecf3'
p28
g26
sssS'adj'
p29
g22
sbsS'save_tmp'
p30
I01
sS'use_cloud'
p31
I01
sS'state'
p32
(isrc.logic.state
State
p33
(dp34
S'map'
p35
(isrc.logic.map
Map
p36
(dp37
S'tiles'
p38
(lp39
(lp40
(isrc.logic.tile
Tile
p41
(dp42
g35
g36
sS'color'
p43
(I20
I20
I20
tp44
sS'surface'
p45
NsS'v'
p46
I0
sS'y'
p47
I0
sS'x'
p48
I0
sS'se'
p49
(isrc.logic.snake
SnakeElement
p50
(dp51
g47
I0
sg48
I0
sS'snake'
p52
(isrc.logic.snake
Snake
p53
(dp54
g43
(I0
I0
I255
tp55
sg35
g36
sS'elements'
p56
(lp57
g50
a(isrc.logic.snake
SnakeElement
p58
(dp59
g47
I1
sg48
I0
sg52
g53
sS'order'
p60
Nsba(isrc.logic.snake
SnakeElement
p61
(dp62
g47
I2
sg48
I0
sg52
g53
sg60
Nsba(isrc.logic.snake
SnakeElement
p63
(dp64
g47
I3
sg48
I0
sg52
g53
sg60
Nsba(isrc.logic.snake
SnakeElement
p65
(dp66
g47
I4
sg48
I0
sg52
g53
sg60
Nsba(isrc.logic.snake
SnakeElement
p67
(dp68
g47
I5
sg48
I0
sg52
g53
sg60
Nsba(isrc.logic.snake
SnakeElement
p69
(dp70
g47
I0
sg48
I1
sg52
g53
sg60
Nsba(isrc.logic.snake
SnakeElement
p71
(dp72
g47
I5
sg48
I1
sg52
g53
sg60
Nsba(isrc.logic.snake
SnakeElement
p73
(dp74
g47
I0
sg48
I2
sg52
g53
sg60
Nsba(isrc.logic.snake
SnakeElement
p75
(dp76
g47
I5
sg48
I2
sg52
g53
sg60
Nsba(isrc.logic.snake
SnakeElement
p77
(dp78
g47
I0
sg48
I3
sg52
g53
sg60
Nsba(isrc.logic.snake
SnakeElement
p79
(dp80
g47
I1
sg48
I3
sg52
g53
sg60
Nsba(isrc.logic.snake
SnakeElement
p81
(dp82
g47
I2
sg48
I3
sg52
g53
sg60
Nsba(isrc.logic.snake
SnakeElement
p83
(dp84
g47
I3
sg48
I3
sg52
g53
sg60
Nsba(isrc.logic.snake
SnakeElement
p85
(dp86
g47
I4
sg48
I3
sg52
g53
sg60
Nsba(isrc.logic.snake
SnakeElement
p87
(dp88
g47
I5
sg48
I3
sg52
g53
sg60
Nsbasg45
Nsg46
VB
p89
sbsg60
Nsbsba(isrc.logic.tile
Tile
p90
(dp91
g35
g36
sg43
g44
sg45
Nsg46
I0
sg47
I1
sg48
I0
sg49
g58
sba(isrc.logic.tile
Tile
p92
(dp93
g35
g36
sg43
g44
sg45
Nsg46
I0
sg47
I2
sg48
I0
sg49
g61
sba(isrc.logic.tile
Tile
p94
(dp95
g35
g36
sg43
g44
sg45
Nsg46
I0
sg47
I3
sg48
I0
sg49
g63
sba(isrc.logic.tile
Tile
p96
(dp97
g35
g36
sg43
g44
sg45
Nsg46
I0
sg47
I4
sg48
I0
sg49
g65
sba(isrc.logic.tile
Tile
p98
(dp99
g35
g36
sg43
g44
sg45
Nsg46
I0
sg47
I5
sg48
I0
sg49
g67
sbaa(lp100
(isrc.logic.tile
Tile
p101
(dp102
g35
g36
sg43
g44
sg45
Nsg46
I0
sg47
I0
sg48
I1
sg49
g69
sba(isrc.logic.tile
Tile
p103
(dp104
g35
g36
sg43
(I50
I50
I50
tp105
sg45
Nsg46
I1
sg47
I1
sg48
I1
sg49
Nsba(isrc.logic.tile
Tile
p106
(dp107
g35
g36
sg43
g105
sg45
Nsg46
I1
sg47
I2
sg48
I1
sg49
Nsba(isrc.logic.tile
Tile
p108
(dp109
g35
g36
sg43
g105
sg45
Nsg46
I1
sg47
I3
sg48
I1
sg49
Nsba(isrc.logic.tile
Tile
p110
(dp111
g35
g36
sg43
g105
sg45
Nsg46
I1
sg47
I4
sg48
I1
sg49
Nsba(isrc.logic.tile
Tile
p112
(dp113
g35
g36
sg43
g44
sg45
Nsg46
I0
sg47
I5
sg48
I1
sg49
g71
sbaa(lp114
(isrc.logic.tile
Tile
p115
(dp116
g35
g36
sg43
g44
sg45
Nsg46
I0
sg47
I0
sg48
I2
sg49
g73
sba(isrc.logic.tile
Tile
p117
(dp118
g35
g36
sg43
g105
sg45
Nsg46
I1
sg47
I1
sg48
I2
sg49
Nsba(isrc.logic.tile
Tile
p119
(dp120
g35
g36
sg43
g44
sg45
Nsg46
I0
sg47
I2
sg48
I2
sg49
(isrc.logic.snake
SnakeElement
p121
(dp122
g47
I2
sg48
I2
sg52
(isrc.logic.snake
Snake
p123
(dp124
g43
(I0
I255
I0
tp125
sg35
g36
sg56
(lp126
g121
a(isrc.logic.snake
SnakeElement
p127
(dp128
g47
I3
sg48
I2
sg52
g123
sg60
Nsbasg45
Nsg46
VG
p129
sbsg60
Nsbsba(isrc.logic.tile
Tile
p130
(dp131
g35
g36
sg43
g44
sg45
Nsg46
I0
sg47
I3
sg48
I2
sg49
g127
sba(isrc.logic.tile
Tile
p132
(dp133
g35
g36
sg43
g105
sg45
Nsg46
I1
sg47
I4
sg48
I2
sg49
Nsba(isrc.logic.tile
Tile
p134
(dp135
g35
g36
sg43
g44
sg45
Nsg46
I0
sg47
I5
sg48
I2
sg49
g75
sbaa(lp136
(isrc.logic.tile
Tile
p137
(dp138
g35
g36
sg43
g44
sg45
Nsg46
I0
sg47
I0
sg48
I3
sg49
g77
sba(isrc.logic.tile
Tile
p139
(dp140
g35
g36
sg43
g44
sg45
Nsg46
I0
sg47
I1
sg48
I3
sg49
g79
sba(isrc.logic.tile
Tile
p141
(dp142
g35
g36
sg43
g44
sg45
Nsg46
I0
sg47
I2
sg48
I3
sg49
g81
sba(isrc.logic.tile
Tile
p143
(dp144
g35
g36
sg43
g44
sg45
Nsg46
I0
sg47
I3
sg48
I3
sg49
g83
sba(isrc.logic.tile
Tile
p145
(dp146
g35
g36
sg43
g44
sg45
Nsg46
I0
sg47
I4
sg48
I3
sg49
g85
sba(isrc.logic.tile
Tile
p147
(dp148
g35
g36
sg43
g44
sg45
Nsg46
I0
sg47
I5
sg48
I3
sg49
g87
sbaa(lp149
(isrc.logic.tile
Tile
p150
(dp151
g35
g36
sg43
g44
sg45
Nsg46
I0
sg47
I0
sg48
I4
sg49
Nsba(isrc.logic.tile
Tile
p152
(dp153
g35
g36
sg43
g105
sg45
Nsg46
I1
sg47
I1
sg48
I4
sg49
Nsba(isrc.logic.tile
Tile
p154
(dp155
g35
g36
sg43
g44
sg45
Nsg46
I0
sg47
I2
sg48
I4
sg49
Nsba(isrc.logic.tile
Tile
p156
(dp157
g35
g36
sg43
g44
sg45
Nsg46
I0
sg47
I3
sg48
I4
sg49
Nsba(isrc.logic.tile
Tile
p158
(dp159
g35
g36
sg43
g105
sg45
Nsg46
I1
sg47
I4
sg48
I4
sg49
Nsba(isrc.logic.tile
Tile
p160
(dp161
g35
g36
sg43
g44
sg45
Nsg46
I0
sg47
I5
sg48
I4
sg49
Nsbaa(lp162
(isrc.logic.tile
Tile
p163
(dp164
g35
g36
sg43
g44
sg45
Nsg46
I0
sg47
I0
sg48
I5
sg49
Nsba(isrc.logic.tile
Tile
p165
(dp166
g35
g36
sg43
g105
sg45
Nsg46
I1
sg47
I1
sg48
I5
sg49
Nsba(isrc.logic.tile
Tile
p167
(dp168
g35
g36
sg43
(I0
I102
I0
tp169
sg45
Nsg46
Vg
p170
sg47
I2
sg48
I5
sg49
Nsba(isrc.logic.tile
Tile
p171
(dp172
g35
g36
sg43
g169
sg45
Nsg46
Vg
p173
sg47
I3
sg48
I5
sg49
Nsba(isrc.logic.tile
Tile
p174
(dp175
g35
g36
sg43
g105
sg45
Nsg46
I1
sg47
I4
sg48
I5
sg49
Nsba(isrc.logic.tile
Tile
p176
(dp177
g35
g36
sg43
g44
sg45
Nsg46
I0
sg47
I5
sg48
I5
sg49
Nsbaasg45
NsS'n'
p178
I6
sS'size_px'
p179
I360
sS'y_offset'
p180
I0
sS'x_offset'
p181
I0
sbsS'move'
p182
NsS'snakes'
p183
(lp184
g53
ag123
asS'parent_state'
p185
(isrc.logic.state
State
p186
(dp187
g35
(isrc.logic.map
Map
p188
(dp189
g38
(lp190
(lp191
(isrc.logic.tile
Tile
p192
(dp193
g35
g188
sg43
g44
sg45
Nsg46
I0
sg47
I0
sg48
I0
sg49
(isrc.logic.snake
SnakeElement
p194
(dp195
g47
I0
sg48
I0
sg52
(isrc.logic.snake
Snake
p196
(dp197
g43
g55
sg35
g188
sg56
(lp198
g194
a(isrc.logic.snake
SnakeElement
p199
(dp200
g47
I1
sg48
I0
sg52
g196
sg60
Nsba(isrc.logic.snake
SnakeElement
p201
(dp202
g47
I2
sg48
I0
sg52
g196
sg60
Nsba(isrc.logic.snake
SnakeElement
p203
(dp204
g47
I3
sg48
I0
sg52
g196
sg60
Nsba(isrc.logic.snake
SnakeElement
p205
(dp206
g47
I4
sg48
I0
sg52
g196
sg60
Nsba(isrc.logic.snake
SnakeElement
p207
(dp208
g47
I5
sg48
I0
sg52
g196
sg60
Nsba(isrc.logic.snake
SnakeElement
p209
(dp210
g47
I0
sg48
I1
sg52
g196
sg60
Nsba(isrc.logic.snake
SnakeElement
p211
(dp212
g47
I5
sg48
I1
sg52
g196
sg60
Nsba(isrc.logic.snake
SnakeElement
p213
(dp214
g47
I0
sg48
I2
sg52
g196
sg60
Nsba(isrc.logic.snake
SnakeElement
p215
(dp216
g47
I5
sg48
I2
sg52
g196
sg60
Nsba(isrc.logic.snake
SnakeElement
p217
(dp218
g47
I0
sg48
I3
sg52
g196
sg60
Nsba(isrc.logic.snake
SnakeElement
p219
(dp220
g47
I1
sg48
I3
sg52
g196
sg60
Nsba(isrc.logic.snake
SnakeElement
p221
(dp222
g47
I2
sg48
I3
sg52
g196
sg60
Nsba(isrc.logic.snake
SnakeElement
p223
(dp224
g47
I3
sg48
I3
sg52
g196
sg60
Nsba(isrc.logic.snake
SnakeElement
p225
(dp226
g47
I4
sg48
I3
sg52
g196
sg60
Nsba(isrc.logic.snake
SnakeElement
p227
(dp228
g47
I5
sg48
I3
sg52
g196
sg60
Nsbasg45
Nsg46
VB
p229
sbsg60
Nsbsba(isrc.logic.tile
Tile
p230
(dp231
g35
g188
sg43
g44
sg45
Nsg46
I0
sg47
I1
sg48
I0
sg49
g199
sba(isrc.logic.tile
Tile
p232
(dp233
g35
g188
sg43
g44
sg45
Nsg46
I0
sg47
I2
sg48
I0
sg49
g201
sba(isrc.logic.tile
Tile
p234
(dp235
g35
g188
sg43
g44
sg45
Nsg46
I0
sg47
I3
sg48
I0
sg49
g203
sba(isrc.logic.tile
Tile
p236
(dp237
g35
g188
sg43
g44
sg45
Nsg46
I0
sg47
I4
sg48
I0
sg49
g205
sba(isrc.logic.tile
Tile
p238
(dp239
g35
g188
sg43
g44
sg45
Nsg46
I0
sg47
I5
sg48
I0
sg49
g207
sbaa(lp240
(isrc.logic.tile
Tile
p241
(dp242
g35
g188
sg43
g44
sg45
Nsg46
I0
sg47
I0
sg48
I1
sg49
g209
sba(isrc.logic.tile
Tile
p243
(dp244
g35
g188
sg43
g105
sg45
Nsg46
I1
sg47
I1
sg48
I1
sg49
Nsba(isrc.logic.tile
Tile
p245
(dp246
g35
g188
sg43
g105
sg45
Nsg46
I1
sg47
I2
sg48
I1
sg49
Nsba(isrc.logic.tile
Tile
p247
(dp248
g35
g188
sg43
g105
sg45
Nsg46
I1
sg47
I3
sg48
I1
sg49
Nsba(isrc.logic.tile
Tile
p249
(dp250
g35
g188
sg43
g105
sg45
Nsg46
I1
sg47
I4
sg48
I1
sg49
Nsba(isrc.logic.tile
Tile
p251
(dp252
g35
g188
sg43
g44
sg45
Nsg46
I0
sg47
I5
sg48
I1
sg49
g211
sbaa(lp253
(isrc.logic.tile
Tile
p254
(dp255
g35
g188
sg43
g44
sg45
Nsg46
I0
sg47
I0
sg48
I2
sg49
g213
sba(isrc.logic.tile
Tile
p256
(dp257
g35
g188
sg43
g105
sg45
Nsg46
I1
sg47
I1
sg48
I2
sg49
Nsba(isrc.logic.tile
Tile
p258
(dp259
g35
g188
sg43
g44
sg45
Nsg46
I0
sg47
I2
sg48
I2
sg49
(isrc.logic.snake
SnakeElement
p260
(dp261
g47
I2
sg48
I2
sg52
(isrc.logic.snake
Snake
p262
(dp263
g43
g125
sg35
g188
sg56
(lp264
g260
a(isrc.logic.snake
SnakeElement
p265
(dp266
g47
I3
sg48
I2
sg52
g262
sg60
Nsbasg45
Nsg46
VG
p267
sbsg60
Nsbsba(isrc.logic.tile
Tile
p268
(dp269
g35
g188
sg43
g44
sg45
Nsg46
I0
sg47
I3
sg48
I2
sg49
g265
sba(isrc.logic.tile
Tile
p270
(dp271
g35
g188
sg43
g105
sg45
Nsg46
I1
sg47
I4
sg48
I2
sg49
Nsba(isrc.logic.tile
Tile
p272
(dp273
g35
g188
sg43
g44
sg45
Nsg46
I0
sg47
I5
sg48
I2
sg49
g215
sbaa(lp274
(isrc.logic.tile
Tile
p275
(dp276
g35
g188
sg43
g44
sg45
Nsg46
I0
sg47
I0
sg48
I3
sg49
g217
sba(isrc.logic.tile
Tile
p277
(dp278
g35
g188
sg43
g44
sg45
Nsg46
I0
sg47
I1
sg48
I3
sg49
g219
sba(isrc.logic.tile
Tile
p279
(dp280
g35
g188
sg43
g44
sg45
Nsg46
I0
sg47
I2
sg48
I3
sg49
g221
sba(isrc.logic.tile
Tile
p281
(dp282
g35
g188
sg43
g44
sg45
Nsg46
I0
sg47
I3
sg48
I3
sg49
g223
sba(isrc.logic.tile
Tile
p283
(dp284
g35
g188
sg43
g44
sg45
Nsg46
I0
sg47
I4
sg48
I3
sg49
g225
sba(isrc.logic.tile
Tile
p285
(dp286
g35
g188
sg43
g44
sg45
Nsg46
I0
sg47
I5
sg48
I3
sg49
g227
sbaa(lp287
(isrc.logic.tile
Tile
p288
(dp289
g35
g188
sg43
g44
sg45
Nsg46
I0
sg47
I0
sg48
I4
sg49
Nsba(isrc.logic.tile
Tile
p290
(dp291
g35
g188
sg43
g105
sg45
Nsg46
I1
sg47
I1
sg48
I4
sg49
Nsba(isrc.logic.tile
Tile
p292
(dp293
g35
g188
sg43
g44
sg45
Nsg46
I0
sg47
I2
sg48
I4
sg49
Nsba(isrc.logic.tile
Tile
p294
(dp295
g35
g188
sg43
g44
sg45
Nsg46
I0
sg47
I3
sg48
I4
sg49
Nsba(isrc.logic.tile
Tile
p296
(dp297
g35
g188
sg43
g105
sg45
Nsg46
I1
sg47
I4
sg48
I4
sg49
Nsba(isrc.logic.tile
Tile
p298
(dp299
g35
g188
sg43
g44
sg45
Nsg46
I0
sg47
I5
sg48
I4
sg49
Nsbaa(lp300
(isrc.logic.tile
Tile
p301
(dp302
g35
g188
sg43
g44
sg45
Nsg46
I0
sg47
I0
sg48
I5
sg49
Nsba(isrc.logic.tile
Tile
p303
(dp304
g35
g188
sg43
g105
sg45
Nsg46
I1
sg47
I1
sg48
I5
sg49
Nsba(isrc.logic.tile
Tile
p305
(dp306
g35
g188
sg43
g169
sg45
Nsg46
Vg
p307
sg47
I2
sg48
I5
sg49
Nsba(isrc.logic.tile
Tile
p308
(dp309
g35
g188
sg43
g169
sg45
Nsg46
Vg
p310
sg47
I3
sg48
I5
sg49
Nsba(isrc.logic.tile
Tile
p311
(dp312
g35
g188
sg43
g105
sg45
Nsg46
I1
sg47
I4
sg48
I5
sg49
Nsba(isrc.logic.tile
Tile
p313
(dp314
g35
g188
sg43
g44
sg45
Nsg46
I0
sg47
I5
sg48
I5
sg49
Nsbaasg45
Nsg178
I6
sg179
I360
sg180
I0
sg181
I0
sbsg182
Nsg183
(lp315
g196
ag262
asg185
NsbsbsS'debug_info'
p316
NsS'MAX_RECURSION_DEPTH'
p317
I1000000
sS'l_shortest'
p318
NsS'sols'
p319
(lp320
sS'use_temp'
p321
I01
sS'quit_on_first'
p322
I00
sb.