(isrc.solve.solver
Solver
p0
(dp1
S'gr'
p2
ccopy_reg
_reconstructor
p3
(cnetworkx.classes.graph
Graph
p4
c__builtin__
object
p5
Ntp6
Rp7
(dp8
S'node'
p9
(dp10
S'78fd8d8dfcebf39a31e0030d32412bbd'
p11
(dp12
sS'eaf7e662dde4e732c70a9f595227a3ed'
p13
(dp14
sS'ba9030a0234f307b1b4941beed38b0e8'
p15
(dp16
sS'f22b140d734b420c5bb6fc99c64d67ef'
p17
(dp18
sS'a40261cece0a410c8a6f5f82f2f8da62'
p19
(dp20
sS'633dc06861aaf17d9845e21ac4348397'
p21
(dp22
sS'e7f37fc91bf2617d00b8db57cd4ae3a8'
p23
(dp24
sS'd5d6a54c331e36473bed7403935d3ca7'
p25
(dp26
sS'20c11bdd798a6dda9c8946e39e36c69d'
p27
(dp28
sS'09fcdb00d96912e2d452ed47da6c6494'
p29
(dp30
sS'a651ff4c75a8779f7c3d8be4e5323883'
p31
(dp32
sS'083f3274dcc9b3455ccc4f20f1a037b9'
p33
(dp34
sS'0cc142f5b64e7bae478843d9b8ff5e02'
p35
(dp36
sS'ae8bfa7ba08dffe3543b0af7f846f6df'
p37
(dp38
sS'5b2944ecb71bd3cc2137b40235f4b255'
p39
(dp40
sS'f378bbd142c3817d1611c7a6205b9c8c'
p41
(dp42
sS'4fcc0cc6fcea21b2ab80a7fbe0cc8507'
p43
(dp44
sS'a91f5664a11fc1b5b175a727241a9684'
p45
(dp46
sS'59c6a63fbd9fabde90ab84b68e8be76c'
p47
(dp48
sS'3ad6c378f67c437387e33a4005ff34ce'
p49
(dp50
sS'85ac680477c3917185b14a8d258bcae6'
p51
(dp52
sS'58288b3f295d10184d0432addbad7818'
p53
(dp54
S'complete'
p55
I01
ssS'87f6c942be473b1bd0d9ee92bb069028'
p56
(dp57
sS'3336400cd2f7526fe726fa94aaa37e5f'
p58
(dp59
sS'97a2071850ccc694f327b0ec80a1484d'
p60
(dp61
sS'4aa2498cd1b92527635bb0f207880abe'
p62
(dp63
sS'7f6f879a50738d9c2a711ed6e199a3d2'
p64
(dp65
sS'3967b827884938463476200c02b48ccb'
p66
(dp67
sS'3b384a897f7d56249066defe00d46c22'
p68
(dp69
g55
I01
ssS'd28d63da54173784b1fd6cc2c077ada6'
p70
(dp71
sS'f1f0082885429f9d1faafac0fd505619'
p72
(dp73
sS'f6611528df21cd9534fe83339fea3d82'
p74
(dp75
sS'9de710853082bb0bd269f92e846c1918'
p76
(dp77
g55
I01
ssS'7cc5e34b32de484ef89b4c7b4a594efd'
p78
(dp79
sS'80d3d7776f4303ec847d84ba5c285345'
p80
(dp81
sS'02ff8658bd9a525a850aa3edfc12a440'
p82
(dp83
sS'151fa0e5b8477a29160eb02a3d0c7e75'
p84
(dp85
sS'2fda8d82ca63affd6342d83d09d4b745'
p86
(dp87
sS'b91f5586c6f5ec5c7253af5d1c1f25d9'
p88
(dp89
sS'8bb4eb472300a642e1c92bce40e3bebb'
p90
(dp91
g55
I01
ssS'd8b0c9b23b505020e9e1c3451cb93b2a'
p92
(dp93
g55
I01
ssS'7bcec2299d07485d97b8bffb142b561f'
p94
(dp95
sS'3372965c344de6d64eaa3ef8bc212ea0'
p96
(dp97
g55
I01
ssS'0ff5dc3b2ad43fbe7c3a95d8eff324e9'
p98
(dp99
sS'74c3e0530b3ca744097329d088ba7063'
p100
(dp101
sS'de3439e36ffc41507bc0dbcb648da62a'
p102
(dp103
sS'edfda8758a4a6685199bdb66d9941765'
p104
(dp105
sS'3a2fb9b4f8b09dfd0627a82b820fe4f8'
p106
(dp107
sS'fd559376e140cf069ad0398c32811964'
p108
(dp109
sS'2408ff052421789e3465ef096e250b71'
p110
(dp111
sS'e20a1b97895d38a8865f5bd9fc9b8a45'
p112
(dp113
sS'b5acea6c56748ff4e4d508838da4e1d1'
p114
(dp115
sS'8e190525d2adaba508e3fceb79756881'
p116
(dp117
sS'e63dee03e96d7e76dbcc15b6c6ae76fb'
p118
(dp119
sS'd477ad7a9b0385c89acca04cd653da8f'
p120
(dp121
sS'b154a6cdfbd6c1880b593232682a07db'
p122
(dp123
sS'7ded2251e5a85c7d21e3dd4a0dee644c'
p124
(dp125
sS'993ecb4cec37eae23dffc79473500ac8'
p126
(dp127
sS'5efab645fe51fa7c91d0b12410e63f16'
p128
(dp129
sS'13229004afdeea5ff1ce8717c3c2c4e7'
p130
(dp131
sS'60d73f763b4867da4fd769643027ad1e'
p132
(dp133
sS'b7b367c08771efccde6f1706ce88c065'
p134
(dp135
sS'75b0f2a445d8ba850bf064d3b6ef7abe'
p136
(dp137
sS'5afc19aa95bc4de1c4d27e8656bfebca'
p138
(dp139
sS'c80c40d4834fcb7a7caaca0eacf250b0'
p140
(dp141
g55
I01
ssS'7d70f7e46469b94b423c6bf97a5e2ecd'
p142
(dp143
g55
I01
ssS'e12525af8c81dc33728d80341bf2ff0d'
p144
(dp145
sS'96faa9cbe0cdeb484e7913caeb750215'
p146
(dp147
sS'35d811735d66efe62f57f463b89b94ef'
p148
(dp149
sS'0dad5012ee50100e6dbf4256215322b8'
p150
(dp151
g55
I01
ssS'0dac556703e0c227b24586ef9695f40a'
p152
(dp153
sS'08f5bfa6a82399c64ed7e1571487d4b3'
p154
(dp155
sS'8b4c7a44857a0b1b78b2ff7e3626cc02'
p156
(dp157
sS'2f55d86eedac91300f2d3dc26837f64f'
p158
(dp159
sS'c5b324571e45ba52db9a35415fd6e91c'
p160
(dp161
sS'0d681a26f43a7d77b1361819aad39b0c'
p162
(dp163
sS'321128f4e21fe2bf3dda04aceb5b99b4'
p164
(dp165
sS'54cea98786b1f64b0f3e5b0c955a6633'
p166
(dp167
sS'0cb01891fbe70a9be1f5b392ccd815ef'
p168
(dp169
g55
I01
ssS'51f174301c501dd9b479bfc15bb0b62e'
p170
(dp171
g55
I01
ssS'e087be51c1c7b46c273956dd994d7a1d'
p172
(dp173
sS'0c2fd659dec8c443567606bead566308'
p174
(dp175
sS'fa5308e84e6672fb9d3d02cf593c47bc'
p176
(dp177
sS'fe8e6f3a114ede0a97774fc7baee3b63'
p178
(dp179
sS'b6ae144ed2ea9a286d7e2992804ad4dd'
p180
(dp181
sS'1b8131a26acf241b74251dce0f7ba713'
p182
(dp183
sS'13893cf59b5f31851340d4af61831611'
p184
(dp185
sS'1298c021bfc9be4b6c066648d3bcdb61'
p186
(dp187
sS'01913d1d8a6f142bb282c17a99d17f78'
p188
(dp189
sS'f537cdb6953cceef9db7860ed427adeb'
p190
(dp191
sS'c8e2f31f2aca8ee154fd54c0abf64723'
p192
(dp193
sS'9946b87f74c36aff05fb91a42b91889a'
p194
(dp195
sS'87403f88cfa84a847c19bfb03e5dd7e2'
p196
(dp197
sS'40fc00661215fd8d7ceb50225dd010c6'
p198
(dp199
sS'678bb8e84ad422d2d2c188297c85f7b4'
p200
(dp201
sS'24f9db6264635afa91ac0a1ceeb81350'
p202
(dp203
sS'd9859c35980c546799507f119648d78b'
p204
(dp205
g55
I01
ssS'19669a4f74ab33e30482e5615a771681'
p206
(dp207
g55
I01
ssS'667ec712e6307a62827298353835d3e5'
p208
(dp209
sS'6c097af53397ac95b142811ec9ba3aeb'
p210
(dp211
sS'305b8a7e000f2dfe8c5b52e7d85fd49a'
p212
(dp213
sS'e54ddc33dc829ae7473b15f97429b7d8'
p214
(dp215
sS'5230834cf1ae6641669f2daed82e47f8'
p216
(dp217
sS'19867f3c0837bd0426e6faf24010669f'
p218
(dp219
g55
I01
ssS'ac901459fb96720be1b3c36cd7d755fc'
p220
(dp221
sS'09fc1f1783411b7fecbc141e382bc330'
p222
(dp223
sS'4af665d55e5fd6f382826f06b5c9eba1'
p224
(dp225
sS'3534fcdf7afdf0aef73b354f13656bfe'
p226
(dp227
sS'1d1fac780ab70420ad91c480389658e6'
p228
(dp229
sS'9dcb99ef3945f11b86ae876cd7f42306'
p230
(dp231
sS'50ecd2859fde8f44ba98e69360f63870'
p232
(dp233
sS'c44c83bb20e8ed5b0797a684c2200cb5'
p234
(dp235
sS'2fab45a244db9edc26ad16308c194434'
p236
(dp237
sS'5c2aba327438591205d588af3f15d4b2'
p238
(dp239
sS'353ff5c4b43b181c89241af72f543f0c'
p240
(dp241
g55
I01
ssS'82350a728236bffde18b6aad25af463d'
p242
(dp243
sS'33c73d0d08cb10f648cb17623e0fd85a'
p244
(dp245
sS'f3b61f25ea2753e23028fa0f285a2985'
p246
(dp247
sS'6a975e3bc45cc054a3284b1ccf5b7560'
p248
(dp249
sS'3c42701fbeffb375839a10e405723c74'
p250
(dp251
sS'e0f41f8f6b4e01466687f7e91b80bfa9'
p252
(dp253
sS'8abcd20056f5c49902962685486f6218'
p254
(dp255
sS'e7635585673c1a0d5adcf20518c95139'
p256
(dp257
g55
I01
ssS'0fb652451386a83a389394968f0d8acc'
p258
(dp259
g55
I01
ssS'249a916a0b2b5d7e8ffb630a3a0961a6'
p260
(dp261
sS'25a333ea76ecb42f7b2663e188121fea'
p262
(dp263
sS'b83872eac7b4c2b2cd7df2b7d88f63e2'
p264
(dp265
sS'f10fe3730926e97504be7ad697990978'
p266
(dp267
sS'58c8eed3ee8533d713209fdde64b28de'
p268
(dp269
sS'4bca88841b445a17ae1c6743c4688a7a'
p270
(dp271
sS'00af5e803074931dae283b5e4f021316'
p272
(dp273
sS'123a31de8ef58c7891fd3a629851b91d'
p274
(dp275
sS'34cbd8528e3f36f9d0151bdbd1bbdda8'
p276
(dp277
sS'aa37de8324bab601a142ebda490c03e6'
p278
(dp279
sS'37a9219b27ea2ff8b962211e9883184f'
p280
(dp281
g55
I01
ssS'a41e5994ad626833a624d5f1ff3dcaca'
p282
(dp283
sS'76fab526f7fd6b5077e0ddb9abf9918e'
p284
(dp285
sS'514c3b9beb6587cc701a327c3bbd909c'
p286
(dp287
sS'92047adf5d06a089895406e9a24b9d8d'
p288
(dp289
sS'cd1c59d76cb245630e3f6589baf99a34'
p290
(dp291
sS'9c4e6519a56f09e27e38dc17361bc6cc'
p292
(dp293
sS'8e33cc5d62805d6e5eeb5545b98ea5e9'
p294
(dp295
sS'7ff5f6ee0e348c1aba4273511ef31cc1'
p296
(dp297
sS'78ba05cbe6cfbb25a491ae4d4cf5e316'
p298
(dp299
sS'26df66e0fecd80656eb5ce107511c3d6'
p300
(dp301
sS'68e6579b86827564eae6a8ac7616e012'
p302
(dp303
sS'20897fa80196d81d4db5159e45f8ead5'
p304
(dp305
sS'def2d96b2a5550756438549dc91dca58'
p306
(dp307
sS'e975d86a5628996e4bcfb3715be4c05a'
p308
(dp309
sS'20df8da8419e58c916009c969001b712'
p310
(dp311
sS'fbd6a14af4c5195aa3517524cb62efb3'
p312
(dp313
sS'8e8f14518858ff122394fc161757e877'
p314
(dp315
sS'd7c8f865648c5842c10fcd43cd88c93f'
p316
(dp317
sS'22486171d98dfe7899450e9c755a42a4'
p318
(dp319
sS'd548b782d0cc10f0d2ec9b10e2b9c8ad'
p320
(dp321
sS'fc780d0577960adafc3a376acd558073'
p322
(dp323
sS'fbd04034512e611b6b2038825bb41bd0'
p324
(dp325
sS'91d395cd4ac26085c4f45a80f733b798'
p326
(dp327
sS'f92fdd02e179c676303455bd0481ff3c'
p328
(dp329
sS'debddca7d681442f7ac4667a404bcffd'
p330
(dp331
sS'10cf9d41a8595dc0d6f2d7941e666491'
p332
(dp333
sS'1cb9356a13eead9ace65ce0ec1a9198f'
p334
(dp335
sS'c9f016fac7364fc2083626e8ef245f79'
p336
(dp337
sS'0e271ba33e8f57d16b6ddbd1b917f4cd'
p338
(dp339
g55
I01
ssS'66c76107d4c8f2c72434cbd1a46220d4'
p340
(dp341
g55
I01
ssS'5e1fd8d232fff9434c21bee8d82f7402'
p342
(dp343
g55
I01
ssS'b76084fb2f4dd9407fa1502e26776a2f'
p344
(dp345
sS'0dd7bbb3069b686c42fffb5cae6bf4a2'
p346
(dp347
sS'7ab98ce5281dc264f3dd1138b6f05322'
p348
(dp349
sS'f13addab4222544bb1963a6d34f622af'
p350
(dp351
sS'0423294ba3a6e0f19df233c38bfe45c7'
p352
(dp353
sS'e8c14ef81f806f07a88152cc19626bad'
p354
(dp355
sS'5c82b7dfac0f1b2485391b2d140dc4a5'
p356
(dp357
sS'5cd95f0b802fd256dbb3f6b8e3240f3f'
p358
(dp359
sS'93ad2f750b1d5099fb83a9adc1374b1a'
p360
(dp361
sS'db2369248cbf1923aa234e817ae1b772'
p362
(dp363
sS'33630f861f3fe893c3fe11b5066c7390'
p364
(dp365
sS'8f0c77acde5cf82abe5ec3208b9d4a91'
p366
(dp367
sS'3c52242ba86729dcbe62244d0126bcb5'
p368
(dp369
g55
I01
ssS'b6d6084b441efb7692841c8f22ad1cfe'
p370
(dp371
sS'517e0d031790c64c644f565618a083fd'
p372
(dp373
sS'6061c394ffb7e71e64c8181b18ade4ca'
p374
(dp375
sS'ee005507bea0eeba5cdb4231ac8c106f'
p376
(dp377
sS'd24c83397090d1dfb2634230723a9a2c'
p378
(dp379
sS'e669c7e039f8c52219f54b9c74afacfd'
p380
(dp381
sS'6d339c7fc1334869633c22c62768e60a'
p382
(dp383
sS'4b1d3730877aa08427b0121f9d014f3f'
p384
(dp385
sS'396f4933dd9ec9e99a1cb827d31894f8'
p386
(dp387
sS'b0c17b6a2390097590908dfc09cfe559'
p388
(dp389
sS'cb60d45715c0bd518dda3cbbaad22a93'
p390
(dp391
sS'7e1bf74a58a884838af495c9f05ab583'
p392
(dp393
sS'c7d5963db08fb36bf3ec4ab99c3257c3'
p394
(dp395
sS'c519a696eb7b4ae0714e37ecaadb8c7e'
p396
(dp397
sS'a70d0a12e9a666ad0dd2b721edc6b8b7'
p398
(dp399
sS'e292be882a5c971fe510f7452f4b83b7'
p400
(dp401
sS'ef2667665d8814f6d6058e678fddae92'
p402
(dp403
sS'945f6a4f7114d60675e68a2f8413f560'
p404
(dp405
sS'f955db95ce757c6b56666b2781cb4029'
p406
(dp407
sS'31efe955a26b2ca6b24d788f9b273e3c'
p408
(dp409
g55
I01
ssS'148e61e310b797f2a6ef55c2b6f7034a'
p410
(dp411
sS'1a5d6290c60fb11112eba4bfc8b07459'
p412
(dp413
sS'bc667869e6695be40d4a588b5de51142'
p414
(dp415
sS'80f83fa93bb533b76747324825b8f544'
p416
(dp417
sS'0af2d0ad168b27dca6cee08f5501eca7'
p418
(dp419
sS'fa0d359bb9dd3fbc055fe38bcc4ae793'
p420
(dp421
sS'd38ea6fb1d332a414afd2d589733ddf8'
p422
(dp423
sS'e8b13ef2fe29f66e268603021b1075fd'
p424
(dp425
sS'50df1dac638ca2c53b0d8d5860b30cb3'
p426
(dp427
sS'1f6ecfbd7df1fc09aacb7066a693f5f4'
p428
(dp429
sS'54edde1ca744d978400eac7f9e4d936a'
p430
(dp431
sS'0a32bf90f565d62be705c3a68a2958e2'
p432
(dp433
sS'f205d17ad664d05b26ffb699d4112302'
p434
(dp435
sS'77f4d793ef0b9474aaf462820c9f931f'
p436
(dp437
sS'884c61cdf68868f95db4830002e3129b'
p438
(dp439
sS'3dc52cf8817fde6eff1198f93b9ef98c'
p440
(dp441
g55
I01
ssS'2622b1a889bacc614b182c89a75b2e87'
p442
(dp443
sS'2b8172d606319145e2f8585e3c855004'
p444
(dp445
sS'3406c62852f7a8ad4b6af1c75382b784'
p446
(dp447
sS'71a07dbf03ef790098f4fa50fd3efb78'
p448
(dp449
sS'cf5d19b60c621292d50aa1a5512e4ee6'
p450
(dp451
sS'bca295bdb9fb2629b689f4e6eeb6d89f'
p452
(dp453
sS'ce0651d3feedf43f2b4ad1853ba8e84b'
p454
(dp455
sS'8712a1ff2d504497d9b483b90d8eb85e'
p456
(dp457
g55
I01
ssS'0ef42b4b287af2c1f652ca3adb4de555'
p458
(dp459
g55
I01
ssS'9f2f3e166f39a6a421abe826785906a8'
p460
(dp461
sS'e1e2c58b7154654e32edfb7741fae282'
p462
(dp463
sS'4e8b3f74ccc37e7e1f699a02175f710c'
p464
(dp465
sS'f702b0fd7068a745066aaba330c3c5ef'
p466
(dp467
sS'9219c259075750cd555933fc7cf56d03'
p468
(dp469
sS'9c187746818e46f5675ffaba1fed2d25'
p470
(dp471
sS'79fcb0c3a30efacc3e5108fe7c62eddc'
p472
(dp473
sS'8f8589fed684adca98a4b15b78d60f77'
p474
(dp475
g55
I01
ssS'd428d2e90e5af21ee028c66fcf80175d'
p476
(dp477
g55
I01
ssS'71325f028a7fbc2a1886e3090fd762c9'
p478
(dp479
sS'a7b979c59fdeb4699d12f213d21b012e'
p480
(dp481
sS'c1c7011fe5177bd319180b3c75e77a70'
p482
(dp483
sS'06c985c3aba5c4ddbcd85be46bd75828'
p484
(dp485
sS'90337298caf6f66181f914c47f7c0a3a'
p486
(dp487
sS'fd32c0dfcab0b64a7ab6bb339529d29a'
p488
(dp489
sS'980a2859d7bb9e4b3f3c5a2ef8637039'
p490
(dp491
sS'78428de00f528662924150b2fe84d7ea'
p492
(dp493
sS'9473b7e4aa5ade948875ec8eccd3cadd'
p494
(dp495
sS'dd8cd223cf0f04ad04f2d11d6d34f077'
p496
(dp497
sS'bc32cc9874344353bfd363060974ede8'
p498
(dp499
sS'475f31e7b1a3820ba50bd4a61102d5bf'
p500
(dp501
sS'45b55b64fd9cee62a5c52e76faf32245'
p502
(dp503
sS'7bb039009548e35a3086b361b42069aa'
p504
(dp505
sS'31ae53aef11be2026271b5b69f183528'
p506
(dp507
sS'c9b7f1450087111f7de83095bd1061cf'
p508
(dp509
sS'9efb760618130780253c9a27170ec6cc'
p510
(dp511
sS'29b464498739ab38b8dd8faf7164d56c'
p512
(dp513
sS'4d533e3c0ac05784a88b95db6fbfa8fe'
p514
(dp515
sS'd7937319cc4920b20c8d5d75f22ae1ca'
p516
(dp517
sS'f200081c310934b99b6ca5426179a8c9'
p518
(dp519
sS'2a87d520e55567c14ebf33226065213f'
p520
(dp521
sS'0f421f912c7ca0a76a6747beabc5d294'
p522
(dp523
sS'a245e9cded718910a37a7136194ef257'
p524
(dp525
g55
I01
ssS'40203f4c3cef60c14e5848081ebba3ca'
p526
(dp527
sS'a9ed960fc6fc3b5dc1ad0319cb44a3b6'
p528
(dp529
g55
I01
ssS'93669376ba66ed7bb75676bf6dab08b4'
p530
(dp531
sS'8865584df5558c892804851e2ed46bf2'
p532
(dp533
sS'68bcfa20b1821bd0378a6a6643b05154'
p534
(dp535
sS'77cfaf99fe43a3163cc37b0cae0b14b9'
p536
(dp537
sS'24384e85215dfe92562abb1d153712a2'
p538
(dp539
sS'bcd2a0a951df456716fe373ff6ba85c8'
p540
(dp541
sS'3745b5e4b961d19e12b3c5ca8256f666'
p542
(dp543
sS'ab12e5da3e6754e499dd92ff39c5ed87'
p544
(dp545
sS'5da1c301f8698ef6694f55aa6f475e39'
p546
(dp547
sS'f18e1c7d1a3af77e4d0b78f99f40b7e0'
p548
(dp549
sS'85cfa63ea09fdf97e007a13a6a201fb3'
p550
(dp551
sS'c2364448e2ba58e6195a790209894f72'
p552
(dp553
sS'5e3e14b5d63ede98c978e69109206a02'
p554
(dp555
g55
I01
ssS'7709b55b3400d8851fd4784b70868fc4'
p556
(dp557
sS'0733ee645323fc131ece97c99b4fd9ec'
p558
(dp559
sS'39fa91c63a2a131a4be4b3dfd8a020a1'
p560
(dp561
sS'09eb818fb687d7df560438bbb50ab688'
p562
(dp563
sS'a8914130973b5a8da1f2562d4e741042'
p564
(dp565
sS'0820911d962e54e31bca4c4f255ba76c'
p566
(dp567
sS'47a885da69e2601d9433f3bb83075740'
p568
(dp569
sS'0adc1d28f265410ffcaa924919da29dd'
p570
(dp571
sS'b16275ef4016adbbd498958721286a4e'
p572
(dp573
sS'556dd9a96763e9ab17ff8fd1f13a568e'
p574
(dp575
sS'b8a39020f55b55534abc0fa25a48639e'
p576
(dp577
sS'a84522375ee358aac48c4d8fef8cbe3a'
p578
(dp579
g55
I01
ssS'90c44b5316250f7ea32fb4f00207af49'
p580
(dp581
sS'a61073163584c04006991a984e122270'
p582
(dp583
sS'95ccde46e6071abedeaa3f7fa0deb52a'
p584
(dp585
g55
I01
ssS'9e579292b17bd61555b7319679ed434b'
p586
(dp587
sS'070d0195b350aa8e20320ce6a31f55e5'
p588
(dp589
sS'ae82a91a4b0194bb66b2345133a2e217'
p590
(dp591
g55
I01
ssS'803424bdb7d42a84df8dc0ac2e0b78c6'
p592
(dp593
sS'21307accb175037b8299dc4d34b44b19'
p594
(dp595
sS'da5c1390d13173450971200a0a2e426a'
p596
(dp597
sS'bbab858988fb819555ba4f0d4fa0f0d5'
p598
(dp599
sS'b2412baad3081c6d7810e5b5f8b1ae1d'
p600
(dp601
sS'de19bdfbff87ea956cc6b39b60749d10'
p602
(dp603
sS'99510bcad7e2b07b0aef4eb503538fc6'
p604
(dp605
g55
I01
ssS'a2f113f2360b8ecf5655d2c1274a2ed5'
p606
(dp607
sS'dd097fcc20a74c6d4973bae9eae49aeb'
p608
(dp609
sS'708ad07fdb78fcb5fefc8a97e48d9d03'
p610
(dp611
sS'c24a6ddcda34a4729cfd881b0336c30a'
p612
(dp613
sS'93d5cc88bb6fa63bcbde3efc269abcb7'
p614
(dp615
sS'78a47ff38b66246e1e01eaf98f78bf14'
p616
(dp617
sS'7b5e9da0e77ad588d724ecd528368481'
p618
(dp619
sS'c67da2a526e48671f5e9df2856080a80'
p620
(dp621
sS'5ab608da43542c1458e24dbcf93c38de'
p622
(dp623
sS'ed79f21c4465437fb2a7d0cb276fd69a'
p624
(dp625
sS'855387b5c14eb9d1c8887b502022bbc5'
p626
(dp627
sS'ff356d849a39d64a191b945209a5b3a3'
p628
(dp629
g55
I01
ssS'89c093f96cf441a41045ede8aa42527a'
p630
(dp631
sS'063624a98aaac7f2a6a0ca761c3a6b33'
p632
(dp633
sS'acce9cb835dbec9caad114012a8bad6b'
p634
(dp635
sS'0ad9639441073e325b7074aa8b093d1d'
p636
(dp637
sS'c91bc8bd3b1425b2844ea898598d1b02'
p638
(dp639
sS'f5ae3f8a0ba08ce7302a16ad0150ffce'
p640
(dp641
sS'94101cf5bb880f327c38778e3bcd2ad5'
p642
(dp643
sS'640bcad1d94152d276e79f97055645a7'
p644
(dp645
sS'db7819839b07388d2d660dc3c3835eff'
p646
(dp647
sS'6e3c1db994562d45d6cce4f0d8cc37d0'
p648
(dp649
sS'bedb68804c18e80a1c4272d58ee1c8a7'
p650
(dp651
ssS'graph'
p652
(dp653
S'finals'
p654
(lp655
g90
ag578
ag206
ag456
ag338
ag554
ag440
ag590
ag150
ag204
ag604
ag170
ag340
ag476
ag68
ag76
ag140
ag458
ag168
ag280
ag528
ag256
ag240
ag524
ag628
ag53
ag408
ag258
ag342
ag368
ag218
ag96
ag584
ag474
ag142
ag92
assS'edge'
p656
(dp657
g11
(dp658
g440
(dp659
sS'e8c14ef81f806f07a88152cc19626bad'
p660
(dp661
sS'fbd6a14af4c5195aa3517524cb62efb3'
p662
(dp663
sS'083f3274dcc9b3455ccc4f20f1a037b9'
p664
(dp665
sg600
(dp666
ssg13
(dp667
S'945f6a4f7114d60675e68a2f8413f560'
p668
(dp669
sS'ef2667665d8814f6d6058e678fddae92'
p670
(dp671
sS'5cd95f0b802fd256dbb3f6b8e3240f3f'
p672
(dp673
sg326
(dp674
ssg15
(dp675
g546
(dp676
sg468
(dp677
sS'd477ad7a9b0385c89acca04cd653da8f'
p678
(dp679
ssg17
(dp680
S'7ded2251e5a85c7d21e3dd4a0dee644c'
p681
(dp682
sS'0ad9639441073e325b7074aa8b093d1d'
p683
(dp684
sS'c24a6ddcda34a4729cfd881b0336c30a'
p685
(dp686
ssg19
(dp687
g606
(dp688
sS'ac901459fb96720be1b3c36cd7d755fc'
p689
(dp690
sS'fd32c0dfcab0b64a7ab6bb339529d29a'
p691
(dp692
ssg21
(dp693
S'7bb039009548e35a3086b361b42069aa'
p694
(dp695
sS'bedb68804c18e80a1c4272d58ee1c8a7'
p696
(dp697
sg360
(dp698
sS'db2369248cbf1923aa234e817ae1b772'
p699
(dp700
ssg23
(dp701
S'89c093f96cf441a41045ede8aa42527a'
p702
(dp703
sS'cf5d19b60c621292d50aa1a5512e4ee6'
p704
(dp705
sg572
(dp706
sS'a41e5994ad626833a624d5f1ff3dcaca'
p707
(dp708
ssg25
(dp709
S'20df8da8419e58c916009c969001b712'
p710
(dp711
sg434
(dp712
ssg27
(dp713
g504
(dp714
sg196
(dp715
sg699
(dp716
sg232
(dp717
ssg29
(dp718
S'b76084fb2f4dd9407fa1502e26776a2f'
p719
(dp720
sS'40203f4c3cef60c14e5848081ebba3ca'
p721
(dp722
sg256
(dp723
sS'7e1bf74a58a884838af495c9f05ab583'
p724
(dp725
ssg31
(dp726
S'9946b87f74c36aff05fb91a42b91889a'
p727
(dp728
sS'b6d6084b441efb7692841c8f22ad1cfe'
p729
(dp730
sS'5b2944ecb71bd3cc2137b40235f4b255'
p731
(dp732
ssg33
(dp733
S'78fd8d8dfcebf39a31e0030d32412bbd'
p734
g665
sS'2f55d86eedac91300f2d3dc26837f64f'
p735
(dp736
sS'c67da2a526e48671f5e9df2856080a80'
p737
(dp738
sg590
(dp739
ssg35
(dp740
S'4aa2498cd1b92527635bb0f207880abe'
p741
(dp742
sg170
(dp743
sS'9c187746818e46f5675ffaba1fed2d25'
p744
(dp745
sS'85ac680477c3917185b14a8d258bcae6'
p746
(dp747
ssg37
(dp748
S'debddca7d681442f7ac4667a404bcffd'
p749
(dp750
sg98
(dp751
sg266
(dp752
sg648
(dp753
sS'06c985c3aba5c4ddbcd85be46bd75828'
p754
(dp755
ssg39
(dp756
S'0dd7bbb3069b686c42fffb5cae6bf4a2'
p757
(dp758
sS'708ad07fdb78fcb5fefc8a97e48d9d03'
p759
(dp760
sS'a651ff4c75a8779f7c3d8be4e5323883'
p761
g732
ssg41
(dp762
g222
(dp763
sS'f702b0fd7068a745066aaba330c3c5ef'
p764
(dp765
sg490
(dp766
sS'803424bdb7d42a84df8dc0ac2e0b78c6'
p767
(dp768
ssg43
(dp769
S'34cbd8528e3f36f9d0151bdbd1bbdda8'
p770
(dp771
sS'148e61e310b797f2a6ef55c2b6f7034a'
p772
(dp773
sS'2408ff052421789e3465ef096e250b71'
p774
(dp775
ssg45
(dp776
g302
(dp777
sS'68bcfa20b1821bd0378a6a6643b05154'
p778
(dp779
sg112
(dp780
sg560
(dp781
ssg47
(dp782
g594
(dp783
sS'f10fe3730926e97504be7ad697990978'
p784
(dp785
sS'6e3c1db994562d45d6cce4f0d8cc37d0'
p786
(dp787
sg74
(dp788
ssg49
(dp789
S'0a32bf90f565d62be705c3a68a2958e2'
p790
(dp791
sg452
(dp792
sS'6a975e3bc45cc054a3284b1ccf5b7560'
p793
(dp794
ssg51
(dp795
S'50df1dac638ca2c53b0d8d5860b30cb3'
p796
(dp797
sg35
g747
sS'5cd95f0b802fd256dbb3f6b8e3240f3f'
p798
(dp799
sS'2fda8d82ca63affd6342d83d09d4b745'
p800
(dp801
ssg53
(dp802
S'ff356d849a39d64a191b945209a5b3a3'
p803
(dp804
sS'31efe955a26b2ca6b24d788f9b273e3c'
p805
(dp806
sS'3967b827884938463476200c02b48ccb'
p807
(dp808
ssg56
(dp809
S'fe8e6f3a114ede0a97774fc7baee3b63'
p810
(dp811
sg500
(dp812
ssg58
(dp813
S'0423294ba3a6e0f19df233c38bfe45c7'
p814
(dp815
sS'063624a98aaac7f2a6a0ca761c3a6b33'
p816
(dp817
sg400
(dp818
ssg60
(dp819
g314
(dp820
sg152
(dp821
sS'0820911d962e54e31bca4c4f255ba76c'
p822
(dp823
ssg62
(dp824
S'50df1dac638ca2c53b0d8d5860b30cb3'
p825
(dp826
sS'0cc142f5b64e7bae478843d9b8ff5e02'
p827
g742
sS'29b464498739ab38b8dd8faf7164d56c'
p828
(dp829
sg90
(dp830
ssg64
(dp831
S'6d339c7fc1334869633c22c62768e60a'
p832
(dp833
sS'b83872eac7b4c2b2cd7df2b7d88f63e2'
p834
(dp835
sS'85cfa63ea09fdf97e007a13a6a201fb3'
p836
(dp837
sg456
(dp838
ssg66
(dp839
S'7bcec2299d07485d97b8bffb142b561f'
p840
(dp841
sS'8e8f14518858ff122394fc161757e877'
p842
(dp843
sg53
g808
sS'3a2fb9b4f8b09dfd0627a82b820fe4f8'
p844
(dp845
ssg68
(dp846
S'd428d2e90e5af21ee028c66fcf80175d'
p847
(dp848
ssg70
(dp849
g430
(dp850
sS'bc32cc9874344353bfd363060974ede8'
p851
(dp852
sS'90337298caf6f66181f914c47f7c0a3a'
p853
(dp854
sS'517e0d031790c64c644f565618a083fd'
p855
(dp856
ssg72
(dp857
g770
(dp858
sS'3745b5e4b961d19e12b3c5ca8256f666'
p859
(dp860
ssg74
(dp861
g230
(dp862
sS'e0f41f8f6b4e01466687f7e91b80bfa9'
p863
(dp864
sS'59c6a63fbd9fabde90ab84b68e8be76c'
p865
g788
ssg76
(dp866
S'31ae53aef11be2026271b5b69f183528'
p867
(dp868
sS'c80c40d4834fcb7a7caaca0eacf250b0'
p869
(dp870
sS'a84522375ee358aac48c4d8fef8cbe3a'
p871
(dp872
ssg78
(dp873
g352
(dp874
sS'a70d0a12e9a666ad0dd2b721edc6b8b7'
p875
(dp876
sg466
(dp877
sS'cd1c59d76cb245630e3f6589baf99a34'
p878
(dp879
sg592
(dp880
ssg80
(dp881
g662
(dp882
sS'b2412baad3081c6d7810e5b5f8b1ae1d'
p883
(dp884
ssg82
(dp885
g396
(dp886
sS'2408ff052421789e3465ef096e250b71'
p887
(dp888
ssg84
(dp889
S'76fab526f7fd6b5077e0ddb9abf9918e'
p890
(dp891
sg136
(dp892
sS'b154a6cdfbd6c1880b593232682a07db'
p893
(dp894
ssg86
(dp895
S'8abcd20056f5c49902962685486f6218'
p896
(dp897
sg51
g801
sg336
(dp898
ssg88
(dp899
g867
(dp900
sg140
(dp901
ssg90
(dp902
g741
g830
sS'51f174301c501dd9b479bfc15bb0b62e'
p903
(dp904
sS'a84522375ee358aac48c4d8fef8cbe3a'
p905
(dp906
ssg92
(dp907
S'7d70f7e46469b94b423c6bf97a5e2ecd'
p908
(dp909
ssg94
(dp910
g628
(dp911
sS'ed79f21c4465437fb2a7d0cb276fd69a'
p912
(dp913
sg116
(dp914
sS'855387b5c14eb9d1c8887b502022bbc5'
p915
(dp916
sS'3967b827884938463476200c02b48ccb'
p917
g841
ssg96
(dp918
S'ab12e5da3e6754e499dd92ff39c5ed87'
p919
(dp920
sS'19867f3c0837bd0426e6faf24010669f'
p921
(dp922
sg584
(dp923
ssg98
(dp924
S'71a07dbf03ef790098f4fa50fd3efb78'
p925
(dp926
sS'c1c7011fe5177bd319180b3c75e77a70'
p927
(dp928
sS'ae8bfa7ba08dffe3543b0af7f846f6df'
p929
g751
sg540
(dp930
ssg100
(dp931
g194
(dp932
sg927
(dp933
sS'bcd2a0a951df456716fe373ff6ba85c8'
p934
(dp935
ssg102
(dp936
S'1a5d6290c60fb11112eba4bfc8b07459'
p937
(dp938
sg598
(dp939
ssg104
(dp940
g638
(dp941
sS'10cf9d41a8595dc0d6f2d7941e666491'
p942
(dp943
sS'0c2fd659dec8c443567606bead566308'
p944
(dp945
sS'8b4c7a44857a0b1b78b2ff7e3626cc02'
p946
(dp947
ssg106
(dp948
S'0af2d0ad168b27dca6cee08f5501eca7'
p949
(dp950
sg408
(dp951
sS'2fab45a244db9edc26ad16308c194434'
p952
(dp953
sg807
g845
ssg108
(dp954
S'68e6579b86827564eae6a8ac7616e012'
p955
(dp956
sg180
(dp957
sg164
(dp958
sg518
(dp959
ssg110
(dp960
S'a7b979c59fdeb4699d12f213d21b012e'
p961
(dp962
sS'4fcc0cc6fcea21b2ab80a7fbe0cc8507'
p963
g775
sg82
g888
ssg112
(dp964
g438
(dp965
sS'a91f5664a11fc1b5b175a727241a9684'
p966
g780
sS'1d1fac780ab70420ad91c480389658e6'
p967
(dp968
sS'3745b5e4b961d19e12b3c5ca8256f666'
p969
(dp970
ssg114
(dp971
g330
(dp972
sS'dd097fcc20a74c6d4973bae9eae49aeb'
p973
(dp974
sS'e087be51c1c7b46c273956dd994d7a1d'
p975
(dp976
sg484
(dp977
ssg116
(dp978
g840
g914
sg218
(dp979
sS'b0c17b6a2390097590908dfc09cfe559'
p980
(dp981
sg544
(dp982
ssg118
(dp983
S'fd32c0dfcab0b64a7ab6bb339529d29a'
p984
(dp985
sS'e1e2c58b7154654e32edfb7741fae282'
p986
(dp987
ssg120
(dp988
S'1f6ecfbd7df1fc09aacb7066a693f5f4'
p989
(dp990
sg15
g679
sg548
(dp991
ssg122
(dp992
g84
g894
sS'13229004afdeea5ff1ce8717c3c2c4e7'
p993
(dp994
sS'c2364448e2ba58e6195a790209894f72'
p995
(dp996
ssg124
(dp997
g17
g682
sg618
(dp998
sS'50ecd2859fde8f44ba98e69360f63870'
p999
(dp1000
sg292
(dp1001
ssg126
(dp1002
S'20df8da8419e58c916009c969001b712'
p1003
(dp1004
sS'71325f028a7fbc2a1886e3090fd762c9'
p1005
(dp1006
sS'60d73f763b4867da4fd769643027ad1e'
p1007
(dp1008
ssg128
(dp1009
S'475f31e7b1a3820ba50bd4a61102d5bf'
p1010
(dp1011
sg186
(dp1012
ssg130
(dp1013
g284
(dp1014
sS'8b4c7a44857a0b1b78b2ff7e3626cc02'
p1015
(dp1016
sg893
g994
sS'c91bc8bd3b1425b2844ea898598d1b02'
p1017
(dp1018
ssg132
(dp1019
S'c5b324571e45ba52db9a35415fd6e91c'
p1020
(dp1021
sg650
(dp1022
sg126
g1008
sg362
(dp1023
ssg134
(dp1024
S'4b1d3730877aa08427b0121f9d014f3f'
p1025
(dp1026
sS'0d681a26f43a7d77b1361819aad39b0c'
p1027
(dp1028
sg356
(dp1029
sg374
(dp1030
ssg136
(dp1031
S'151fa0e5b8477a29160eb02a3d0c7e75'
p1032
g892
ssg138
(dp1033
S'7bb039009548e35a3086b361b42069aa'
p1034
(dp1035
sg442
(dp1036
sS'7b5e9da0e77ad588d724ecd528368481'
p1037
(dp1038
sg999
(dp1039
ssg140
(dp1040
S'b91f5586c6f5ec5c7253af5d1c1f25d9'
p1041
g901
sS'9de710853082bb0bd269f92e846c1918'
p1042
g870
sg458
(dp1043
ssg142
(dp1044
S'93d5cc88bb6fa63bcbde3efc269abcb7'
p1045
(dp1046
sS'8f8589fed684adca98a4b15b78d60f77'
p1047
(dp1048
sg92
g909
ssg144
(dp1049
S'fa0d359bb9dd3fbc055fe38bcc4ae793'
p1050
(dp1051
sS'20897fa80196d81d4db5159e45f8ead5'
p1052
(dp1053
sS'708ad07fdb78fcb5fefc8a97e48d9d03'
p1054
(dp1055
ssg146
(dp1056
S'1b8131a26acf241b74251dce0f7ba713'
p1057
(dp1058
sg934
(dp1059
ssg148
(dp1060
g614
(dp1061
sg474
(dp1062
sS'24384e85215dfe92562abb1d153712a2'
p1063
(dp1064
sS'90c44b5316250f7ea32fb4f00207af49'
p1065
(dp1066
ssg150
(dp1067
S'2f55d86eedac91300f2d3dc26837f64f'
p1068
(dp1069
sS'ae82a91a4b0194bb66b2345133a2e217'
p1070
(dp1071
sS'd9859c35980c546799507f119648d78b'
p1072
(dp1073
ssg152
(dp1074
S'97a2071850ccc694f327b0ec80a1484d'
p1075
g821
sg278
(dp1076
sg236
(dp1077
ssg154
(dp1078
g476
(dp1079
sg883
(dp1080
ssg156
(dp1081
S'acce9cb835dbec9caad114012a8bad6b'
p1082
(dp1083
sg130
g1016
sS'edfda8758a4a6685199bdb66d9941765'
p1084
g947
sS'c2364448e2ba58e6195a790209894f72'
p1085
(dp1086
ssg158
(dp1087
g668
(dp1088
sg150
g1069
sS'083f3274dcc9b3455ccc4f20f1a037b9'
p1089
g736
sS'91d395cd4ac26085c4f45a80f733b798'
p1090
(dp1091
ssg160
(dp1092
S'f92fdd02e179c676303455bd0481ff3c'
p1093
(dp1094
sg310
(dp1095
sg132
g1021
ssg162
(dp1096
S'0adc1d28f265410ffcaa924919da29dd'
p1097
(dp1098
sS'b7b367c08771efccde6f1706ce88c065'
p1099
g1028
sS'92047adf5d06a089895406e9a24b9d8d'
p1100
(dp1101
sS'6c097af53397ac95b142811ec9ba3aeb'
p1102
(dp1103
ssg164
(dp1104
g586
(dp1105
sS'e54ddc33dc829ae7473b15f97429b7d8'
p1106
(dp1107
sS'fd559376e140cf069ad0398c32811964'
p1108
g958
sS'1d1fac780ab70420ad91c480389658e6'
p1109
(dp1110
ssg166
(dp1111
S'0af2d0ad168b27dca6cee08f5501eca7'
p1112
(dp1113
sS'396f4933dd9ec9e99a1cb827d31894f8'
p1114
(dp1115
sS'249a916a0b2b5d7e8ffb630a3a0961a6'
p1116
(dp1117
sg342
(dp1118
ssg168
(dp1119
S'37a9219b27ea2ff8b962211e9883184f'
p1120
(dp1121
sS'3c52242ba86729dcbe62244d0126bcb5'
p1122
(dp1123
sS'3534fcdf7afdf0aef73b354f13656bfe'
p1124
(dp1125
ssg170
(dp1126
S'0cc142f5b64e7bae478843d9b8ff5e02'
p1127
g743
sS'99510bcad7e2b07b0aef4eb503538fc6'
p1128
(dp1129
sS'8bb4eb472300a642e1c92bce40e3bebb'
p1130
g904
ssg172
(dp1131
S'b5acea6c56748ff4e4d508838da4e1d1'
p1132
g976
sg202
(dp1133
sS'f205d17ad664d05b26ffb699d4112302'
p1134
(dp1135
ssg174
(dp1136
S'4d533e3c0ac05784a88b95db6fbfa8fe'
p1137
(dp1138
sS'edfda8758a4a6685199bdb66d9941765'
p1139
g945
ssg176
(dp1140
S'd7c8f865648c5842c10fcd43cd88c93f'
p1141
(dp1142
sg386
(dp1143
sS'c7d5963db08fb36bf3ec4ab99c3257c3'
p1144
(dp1145
sg1116
(dp1146
ssg178
(dp1147
S'7ff5f6ee0e348c1aba4273511ef31cc1'
p1148
(dp1149
sg56
g811
ssg180
(dp1150
g242
(dp1151
sg1108
g957
sg214
(dp1152
ssg182
(dp1153
S'96faa9cbe0cdeb484e7913caeb750215'
p1154
g1058
sS'f537cdb6953cceef9db7860ed427adeb'
p1155
(dp1156
ssg184
(dp1157
S'5c82b7dfac0f1b2485391b2d140dc4a5'
p1158
(dp1159
sg558
(dp1160
sg530
(dp1161
sS'6061c394ffb7e71e64c8181b18ade4ca'
p1162
(dp1163
ssg186
(dp1164
S'5efab645fe51fa7c91d0b12410e63f16'
p1165
g1012
sg516
(dp1166
ssg188
(dp1167
S'00af5e803074931dae283b5e4f021316'
p1168
(dp1169
sg749
(dp1170
sS'6e3c1db994562d45d6cce4f0d8cc37d0'
p1171
(dp1172
sg536
(dp1173
ssg190
(dp1174
S'c519a696eb7b4ae0714e37ecaadb8c7e'
p1175
(dp1176
sg200
(dp1177
sg182
g1156
ssg192
(dp1178
g1175
(dp1179
sS'678bb8e84ad422d2d2c188297c85f7b4'
p1180
(dp1181
sg472
(dp1182
ssg194
(dp1183
S'a651ff4c75a8779f7c3d8be4e5323883'
p1184
g728
sS'74c3e0530b3ca744097329d088ba7063'
p1185
g932
ssg196
(dp1186
S'20c11bdd798a6dda9c8946e39e36c69d'
p1187
g715
sS'0ad9639441073e325b7074aa8b093d1d'
p1188
(dp1189
sS'71325f028a7fbc2a1886e3090fd762c9'
p1190
(dp1191
ssg198
(dp1192
S'c44c83bb20e8ed5b0797a684c2200cb5'
p1193
(dp1194
sg250
(dp1195
sg286
(dp1196
ssg200
(dp1197
S'c8e2f31f2aca8ee154fd54c0abf64723'
p1198
g1181
sg398
(dp1199
sg290
(dp1200
sg1155
g1177
ssg202
(dp1201
g272
(dp1202
sS'debddca7d681442f7ac4667a404bcffd'
p1203
(dp1204
sS'e087be51c1c7b46c273956dd994d7a1d'
p1205
g1133
ssg204
(dp1206
S'99510bcad7e2b07b0aef4eb503538fc6'
p1207
(dp1208
sS'0dad5012ee50100e6dbf4256215322b8'
p1209
g1073
sS'91d395cd4ac26085c4f45a80f733b798'
p1210
(dp1211
ssg206
(dp1212
g836
(dp1213
sS'a84522375ee358aac48c4d8fef8cbe3a'
p1214
(dp1215
sS'8712a1ff2d504497d9b483b90d8eb85e'
p1216
(dp1217
ssg208
(dp1218
g380
(dp1219
sg322
(dp1220
sS'b8a39020f55b55534abc0fa25a48639e'
p1221
(dp1222
sS'77f4d793ef0b9474aaf462820c9f931f'
p1223
(dp1224
ssg210
(dp1225
S'a61073163584c04006991a984e122270'
p1226
(dp1227
sS'0d681a26f43a7d77b1361819aad39b0c'
p1228
g1103
sS'6061c394ffb7e71e64c8181b18ade4ca'
p1229
(dp1230
sS'7709b55b3400d8851fd4784b70868fc4'
p1231
(dp1232
ssg212
(dp1233
S'a2f113f2360b8ecf5655d2c1274a2ed5'
p1234
(dp1235
sg691
(dp1236
ssg214
(dp1237
S'b6ae144ed2ea9a286d7e2992804ad4dd'
p1238
g1152
sg406
(dp1239
sS'321128f4e21fe2bf3dda04aceb5b99b4'
p1240
g1107
ssg216
(dp1241
g234
(dp1242
sS'5da1c301f8698ef6694f55aa6f475e39'
p1243
(dp1244
sg446
(dp1245
ssg218
(dp1246
S'ff356d849a39d64a191b945209a5b3a3'
p1247
(dp1248
sS'3372965c344de6d64eaa3ef8bc212ea0'
p1249
g922
sS'8e190525d2adaba508e3fceb79756881'
p1250
g979
ssg220
(dp1251
S'78428de00f528662924150b2fe84d7ea'
p1252
(dp1253
sS'e8b13ef2fe29f66e268603021b1075fd'
p1254
(dp1255
sg19
g690
ssg222
(dp1256
S'f378bbd142c3817d1611c7a6205b9c8c'
p1257
g763
sS'c9f016fac7364fc2083626e8ef245f79'
p1258
(dp1259
sg320
(dp1260
ssg224
(dp1261
g268
(dp1262
sS'4bca88841b445a17ae1c6743c4688a7a'
p1263
(dp1264
ssg226
(dp1265
g168
g1125
sS'24384e85215dfe92562abb1d153712a2'
p1266
(dp1267
sS'396f4933dd9ec9e99a1cb827d31894f8'
p1268
(dp1269
sS'c7d5963db08fb36bf3ec4ab99c3257c3'
p1270
(dp1271
ssg228
(dp1272
g955
(dp1273
sS'321128f4e21fe2bf3dda04aceb5b99b4'
p1274
g1110
sS'e20a1b97895d38a8865f5bd9fc9b8a45'
p1275
g968
sg282
(dp1276
ssg230
(dp1277
g538
(dp1278
sS'21307accb175037b8299dc4d34b44b19'
p1279
(dp1280
sS'c7d5963db08fb36bf3ec4ab99c3257c3'
p1281
(dp1282
sg580
(dp1283
sS'f6611528df21cd9534fe83339fea3d82'
p1284
g862
ssg232
(dp1285
g124
g1000
sg1187
g717
sg636
(dp1286
sg138
g1039
ssg234
(dp1287
g318
(dp1288
sg198
g1194
sS'5230834cf1ae6641669f2daed82e47f8'
p1289
g1242
ssg236
(dp1290
g842
(dp1291
sS'0dac556703e0c227b24586ef9695f40a'
p1292
g1077
sg106
g953
sS'09eb818fb687d7df560438bbb50ab688'
p1293
(dp1294
ssg238
(dp1295
g1226
(dp1296
sg246
(dp1297
sg364
(dp1298
sg556
(dp1299
ssg240
(dp1300
S'b76084fb2f4dd9407fa1502e26776a2f'
p1301
(dp1302
sS'a245e9cded718910a37a7136194ef257'
p1303
(dp1304
sS'e7635585673c1a0d5adcf20518c95139'
p1305
(dp1306
ssg242
(dp1307
g1238
g1151
sS'f200081c310934b99b6ca5426179a8c9'
p1308
(dp1309
ssg244
(dp1310
g520
(dp1311
sS'f18e1c7d1a3af77e4d0b78f99f40b7e0'
p1312
(dp1313
ssg246
(dp1314
S'5c2aba327438591205d588af3f15d4b2'
p1315
g1297
sg390
(dp1316
sg496
(dp1317
ssg248
(dp1318
S'3c42701fbeffb375839a10e405723c74'
p1319
(dp1320
sg634
(dp1321
sS'f13addab4222544bb1963a6d34f622af'
p1322
(dp1323
sS'3ad6c378f67c437387e33a4005ff34ce'
p1324
g794
ssg250
(dp1325
g790
(dp1326
sS'40fc00661215fd8d7ceb50225dd010c6'
p1327
g1195
sg248
g1320
sS'22486171d98dfe7899450e9c755a42a4'
p1328
(dp1329
ssg252
(dp1330
g1141
(dp1331
sg394
(dp1332
sS'f6611528df21cd9534fe83339fea3d82'
p1333
g864
ssg254
(dp1334
g670
(dp1335
sg358
(dp1336
sg86
g897
ssg256
(dp1337
S'09fcdb00d96912e2d452ed47da6c6494'
p1338
g723
sS'353ff5c4b43b181c89241af72f543f0c'
p1339
g1306
sS'a9ed960fc6fc3b5dc1ad0319cb44a3b6'
p1340
(dp1341
ssg258
(dp1342
g1112
(dp1343
sS'31efe955a26b2ca6b24d788f9b273e3c'
p1344
(dp1345
sS'5e1fd8d232fff9434c21bee8d82f7402'
p1346
(dp1347
ssg260
(dp1348
g166
g1117
sS'2b8172d606319145e2f8585e3c855004'
p1349
(dp1350
sS'fa5308e84e6672fb9d3d02cf593c47bc'
p1351
g1146
sS'09eb818fb687d7df560438bbb50ab688'
p1352
(dp1353
ssg262
(dp1354
g296
(dp1355
sg729
(dp1356
ssg264
(dp1357
S'a8914130973b5a8da1f2562d4e741042'
p1358
(dp1359
sS'7f6f879a50738d9c2a711ed6e199a3d2'
p1360
g835
sS'e8c14ef81f806f07a88152cc19626bad'
p1361
(dp1362
sg338
(dp1363
ssg266
(dp1364
g47
g785
sg482
(dp1365
sg929
g752
ssg268
(dp1366
g480
(dp1367
sS'4af665d55e5fd6f382826f06b5c9eba1'
p1368
g1262
ssg270
(dp1369
S'def2d96b2a5550756438549dc91dca58'
p1370
(dp1371
sg224
g1264
ssg272
(dp1372
S'01913d1d8a6f142bb282c17a99d17f78'
p1373
g1169
sg334
(dp1374
sS'24f9db6264635afa91ac0a1ceeb81350'
p1375
g1202
sg566
(dp1376
ssg274
(dp1377
S'9473b7e4aa5ade948875ec8eccd3cadd'
p1378
(dp1379
sg412
(dp1380
ssg276
(dp1381
g961
(dp1382
sg534
(dp1383
sg43
g771
sg72
g858
ssg278
(dp1384
g1292
g1076
sg444
(dp1385
sg562
(dp1386
ssg280
(dp1387
S'0cb01891fbe70a9be1f5b392ccd815ef'
p1388
g1121
sS'8f8589fed684adca98a4b15b78d60f77'
p1389
(dp1390
sg1063
(dp1391
sS'a9ed960fc6fc3b5dc1ad0319cb44a3b6'
p1392
(dp1393
ssg282
(dp1394
S'884c61cdf68868f95db4830002e3129b'
p1395
(dp1396
sS'9e579292b17bd61555b7319679ed434b'
p1397
(dp1398
sg967
g1276
sg23
g708
ssg284
(dp1399
S'13229004afdeea5ff1ce8717c3c2c4e7'
p1400
g1014
sS'151fa0e5b8477a29160eb02a3d0c7e75'
p1401
g891
ssg286
(dp1402
g432
(dp1403
sg1327
g1196
ssg288
(dp1404
S'd24c83397090d1dfb2634230723a9a2c'
p1405
(dp1406
sS'0d681a26f43a7d77b1361819aad39b0c'
p1407
g1101
sS'fc780d0577960adafc3a376acd558073'
p1408
(dp1409
sg1231
(dp1410
ssg290
(dp1411
g78
g879
sg1180
g1200
sg454
(dp1412
sS'79fcb0c3a30efacc3e5108fe7c62eddc'
p1413
(dp1414
sg602
(dp1415
ssg292
(dp1416
g366
(dp1417
sg681
g1001
sg612
(dp1418
ssg294
(dp1419
S'bc667869e6695be40d4a588b5de51142'
p1420
(dp1421
ssg296
(dp1422
S'25a333ea76ecb42f7b2663e188121fea'
p1423
g1355
sg178
g1149
ssg298
(dp1424
g328
(dp1425
sS'bbab858988fb819555ba4f0d4fa0f0d5'
p1426
(dp1427
ssg300
(dp1428
g510
(dp1429
sS'7ab98ce5281dc264f3dd1138b6f05322'
p1430
(dp1431
ssg302
(dp1432
g108
g956
sg966
g777
sg228
g1273
sg568
(dp1433
ssg304
(dp1434
g1226
(dp1435
sS'33630f861f3fe893c3fe11b5066c7390'
p1436
(dp1437
sS'e12525af8c81dc33728d80341bf2ff0d'
p1438
g1053
ssg306
(dp1439
S'd7937319cc4920b20c8d5d75f22ae1ca'
p1440
(dp1441
sg270
g1371
ssg308
(dp1442
S'0423294ba3a6e0f19df233c38bfe45c7'
p1443
(dp1444
sg764
(dp1445
sg632
(dp1446
ssg310
(dp1447
g25
g711
sg1020
g1095
sS'993ecb4cec37eae23dffc79473500ac8'
p1448
g1004
ssg312
(dp1449
g11
g663
sS'640bcad1d94152d276e79f97055645a7'
p1450
(dp1451
sg80
g882
sS'9f2f3e166f39a6a421abe826785906a8'
p1452
(dp1453
sS'c67da2a526e48671f5e9df2856080a80'
p1454
(dp1455
ssg314
(dp1456
g1075
g820
sg66
g843
sg915
(dp1457
sS'2fab45a244db9edc26ad16308c194434'
p1458
g1291
ssg316
(dp1459
g1349
(dp1460
sg252
g1331
sg176
g1142
ssg318
(dp1461
g1193
g1288
sg1319
g1329
sg350
(dp1462
sS'3406c62852f7a8ad4b6af1c75382b784'
p1463
(dp1464
ssg320
(dp1465
S'50df1dac638ca2c53b0d8d5860b30cb3'
p1466
(dp1467
sg640
(dp1468
sS'09fc1f1783411b7fecbc141e382bc330'
p1469
g1260
sg512
(dp1470
sS'980a2859d7bb9e4b3f3c5a2ef8637039'
p1471
(dp1472
ssg322
(dp1473
g1097
(dp1474
sS'667ec712e6307a62827298353835d3e5'
p1475
g1220
sg1100
g1409
sS'ee005507bea0eeba5cdb4231ac8c106f'
p1476
(dp1477
ssg324
(dp1478
S'884c61cdf68868f95db4830002e3129b'
p1479
(dp1480
sg859
(dp1481
ssg326
(dp1482
S'eaf7e662dde4e732c70a9f595227a3ed'
p1483
g674
sS'9c187746818e46f5675ffaba1fed2d25'
p1484
(dp1485
sg204
g1211
sg1068
g1091
ssg328
(dp1486
g160
g1094
sS'78ba05cbe6cfbb25a491ae4d4cf5e316'
p1487
g1425
ssg330
(dp1488
g188
g1170
sg1132
g972
sg448
(dp1489
sg1375
g1204
sg37
g750
ssg332
(dp1490
S'4d533e3c0ac05784a88b95db6fbfa8fe'
p1491
(dp1492
sg1082
(dp1493
sg1322
(dp1494
sg104
g943
ssg334
(dp1495
S'00af5e803074931dae283b5e4f021316'
p1496
g1374
sg624
(dp1497
sS'855387b5c14eb9d1c8887b502022bbc5'
p1498
(dp1499
sS'77cfaf99fe43a3163cc37b0cae0b14b9'
p1500
(dp1501
ssg336
(dp1502
g426
(dp1503
sS'09fc1f1783411b7fecbc141e382bc330'
p1504
g1259
sg800
g898
ssg338
(dp1505
S'b83872eac7b4c2b2cd7df2b7d88f63e2'
p1506
g1363
sS'5e3e14b5d63ede98c978e69109206a02'
p1507
(dp1508
sS'8712a1ff2d504497d9b483b90d8eb85e'
p1509
(dp1510
ssg340
(dp1511
g847
(dp1512
sg883
(dp1513
sS'3dc52cf8817fde6eff1198f93b9ef98c'
p1514
(dp1515
ssg342
(dp1516
g1122
(dp1517
sS'0fb652451386a83a389394968f0d8acc'
p1518
g1347
sS'54cea98786b1f64b0f3e5b0c955a6633'
p1519
g1118
ssg344
(dp1520
g1338
g720
sg240
g1302
sS'ed79f21c4465437fb2a7d0cb276fd69a'
p1521
(dp1522
sg1500
(dp1523
ssg346
(dp1524
g370
(dp1525
sg39
g758
sS'0733ee645323fc131ece97c99b4fd9ec'
p1526
(dp1527
sS'93669376ba66ed7bb75676bf6dab08b4'
p1528
(dp1529
ssg348
(dp1530
S'2a87d520e55567c14ebf33226065213f'
p1531
(dp1532
sg300
g1431
ssg350
(dp1533
S'22486171d98dfe7899450e9c755a42a4'
p1534
g1462
sg332
g1494
sS'6a975e3bc45cc054a3284b1ccf5b7560'
p1535
g1323
sS'517e0d031790c64c644f565618a083fd'
p1536
(dp1537
ssg352
(dp1538
S'7cc5e34b32de484ef89b4c7b4a594efd'
p1539
g874
sg58
g815
sS'ce0651d3feedf43f2b4ad1853ba8e84b'
p1540
(dp1541
sS'e975d86a5628996e4bcfb3715be4c05a'
p1542
g1444
ssg354
(dp1543
S'78fd8d8dfcebf39a31e0030d32412bbd'
p1544
g661
sg1506
g1362
sg1452
(dp1545
sg554
(dp1546
ssg356
(dp1547
g1099
g1029
sg184
g1159
ssg358
(dp1548
g1483
g673
sg896
g1336
sg470
(dp1549
sS'85ac680477c3917185b14a8d258bcae6'
p1550
g799
ssg360
(dp1551
S'd38ea6fb1d332a414afd2d589733ddf8'
p1552
(dp1553
sS'633dc06861aaf17d9845e21ac4348397'
p1554
g698
ssg362
(dp1555
g27
g716
sg478
(dp1556
sg21
g700
sg1007
g1023
ssg364
(dp1557
g1315
g1298
sS'20897fa80196d81d4db5159e45f8ead5'
p1558
g1437
sS'dd8cd223cf0f04ad04f2d11d6d34f077'
p1559
(dp1560
ssg366
(dp1561
g492
(dp1562
sS'7b5e9da0e77ad588d724ecd528368481'
p1563
(dp1564
sS'9c4e6519a56f09e27e38dc17361bc6cc'
p1565
g1417
ssg368
(dp1566
S'0cb01891fbe70a9be1f5b392ccd815ef'
p1567
g1123
sS'396f4933dd9ec9e99a1cb827d31894f8'
p1568
(dp1569
sS'5e1fd8d232fff9434c21bee8d82f7402'
p1570
g1517
ssg370
(dp1571
g262
g1356
sg757
g1525
sg31
g730
ssg372
(dp1572
S'3406c62852f7a8ad4b6af1c75382b784'
p1573
(dp1574
sg514
(dp1575
sS'f13addab4222544bb1963a6d34f622af'
p1576
g1537
sS'd28d63da54173784b1fd6cc2c077ada6'
p1577
g856
ssg374
(dp1578
g1099
g1030
sg1050
(dp1579
sS'13893cf59b5f31851340d4af61831611'
p1580
g1163
sg1102
g1230
ssg376
(dp1581
S'd24c83397090d1dfb2634230723a9a2c'
p1582
(dp1583
sS'fc780d0577960adafc3a376acd558073'
p1584
g1477
sS'b8a39020f55b55534abc0fa25a48639e'
p1585
(dp1586
ssg378
(dp1587
S'cb60d45715c0bd518dda3cbbaad22a93'
p1588
(dp1589
sg1100
g1406
sg376
g1583
ssg380
(dp1590
g570
(dp1591
sg1475
g1219
ssg382
(dp1592
S'a8914130973b5a8da1f2562d4e741042'
p1593
(dp1594
sg64
g833
sS'980a2859d7bb9e4b3f3c5a2ef8637039'
p1595
(dp1596
sS'803424bdb7d42a84df8dc0ac2e0b78c6'
p1597
(dp1598
ssg384
(dp1599
g1097
(dp1600
sg134
g1026
ssg386
(dp1601
g368
g1569
sS'fa5308e84e6672fb9d3d02cf593c47bc'
p1602
g1143
sg1124
g1269
sg1519
g1115
ssg388
(dp1603
g1250
g981
sg915
(dp1604
ssg390
(dp1605
S'f3b61f25ea2753e23028fa0f285a2985'
p1606
g1316
sg378
g1589
sS'7709b55b3400d8851fd4784b70868fc4'
p1607
(dp1608
ssg392
(dp1609
S'09fcdb00d96912e2d452ed47da6c6494'
p1610
g725
sS'21307accb175037b8299dc4d34b44b19'
p1611
(dp1612
sg1063
(dp1613
sg528
(dp1614
ssg394
(dp1615
g226
g1271
sg863
g1332
sS'9dcb99ef3945f11b86ae876cd7f42306'
p1616
g1282
sg1602
g1145
ssg396
(dp1617
g192
g1179
sS'02ff8658bd9a525a850aa3edfc12a440'
p1618
g886
sg190
g1176
ssg398
(dp1619
g1539
g876
sg1180
g1199
ssg400
(dp1620
S'3336400cd2f7526fe726fa94aaa37e5f'
p1621
g818
sS'5ab608da43542c1458e24dbcf93c38de'
p1622
(dp1623
ssg402
(dp1624
g13
g671
sg254
g1335
sS'070d0195b350aa8e20320ce6a31f55e5'
p1625
(dp1626
ssg404
(dp1627
S'eaf7e662dde4e732c70a9f595227a3ed'
p1628
g669
sg1625
(dp1629
sg737
(dp1630
sg158
g1088
ssg406
(dp1631
g646
(dp1632
sg1106
g1239
sS'9e579292b17bd61555b7319679ed434b'
p1633
(dp1634
ssg408
(dp1635
S'3a2fb9b4f8b09dfd0627a82b820fe4f8'
p1636
g951
sS'58288b3f295d10184d0432addbad7818'
p1637
g806
sS'0fb652451386a83a389394968f0d8acc'
p1638
g1345
ssg410
(dp1639
g778
(dp1640
sS'4fcc0cc6fcea21b2ab80a7fbe0cc8507'
p1641
g773
sS'39fa91c63a2a131a4be4b3dfd8a020a1'
p1642
(dp1643
ssg412
(dp1644
S'123a31de8ef58c7891fd3a629851b91d'
p1645
g1380
sg102
g938
ssg414
(dp1646
g294
g1421
sS'da5c1390d13173450971200a0a2e426a'
p1647
(dp1648
sS'8865584df5558c892804851e2ed46bf2'
p1649
(dp1650
ssg416
(dp1651
g532
(dp1652
sS'b16275ef4016adbbd498958721286a4e'
p1653
(dp1654
sg704
(dp1655
sS'da5c1390d13173450971200a0a2e426a'
p1656
(dp1657
ssg418
(dp1658
g1636
g950
sS'54cea98786b1f64b0f3e5b0c955a6633'
p1659
g1113
sg258
g1343
sg1352
(dp1660
ssg420
(dp1661
g582
(dp1662
sS'6061c394ffb7e71e64c8181b18ade4ca'
p1663
g1579
sS'93669376ba66ed7bb75676bf6dab08b4'
p1664
(dp1665
sg144
g1051
ssg422
(dp1666
g694
(dp1667
sS'2622b1a889bacc614b182c89a75b2e87'
p1668
(dp1669
sS'93ad2f750b1d5099fb83a9adc1374b1a'
p1670
g1553
sg464
(dp1671
ssg424
(dp1672
S'556dd9a96763e9ab17ff8fd1f13a568e'
p1673
(dp1674
sg689
g1255
sg488
(dp1675
sS'e1e2c58b7154654e32edfb7741fae282'
p1676
(dp1677
ssg426
(dp1678
S'd548b782d0cc10f0d2ec9b10e2b9c8ad'
p1679
g1467
sg746
g797
sg1258
g1503
sg62
g826
ssg428
(dp1680
S'063624a98aaac7f2a6a0ca761c3a6b33'
p1681
(dp1682
sg120
g990
ssg430
(dp1683
g1577
g850
sg1137
(dp1684
ssg432
(dp1685
S'3c42701fbeffb375839a10e405723c74'
p1686
g1326
sS'514c3b9beb6587cc701a327c3bbd909c'
p1687
g1403
sg49
g791
ssg434
(dp1688
S'd5d6a54c331e36473bed7403935d3ca7'
p1689
g712
sg608
(dp1690
sg172
g1135
ssg436
(dp1691
S'45b55b64fd9cee62a5c52e76faf32245'
p1692
(dp1693
sg208
g1224
ssg438
(dp1694
g630
(dp1695
sS'fbd04034512e611b6b2038825bb41bd0'
p1696
g1480
sS'e20a1b97895d38a8865f5bd9fc9b8a45'
p1697
g965
sS'a41e5994ad626833a624d5f1ff3dcaca'
p1698
g1396
ssg440
(dp1699
g734
g659
sS'66c76107d4c8f2c72434cbd1a46220d4'
p1700
g1515
sS'5e3e14b5d63ede98c978e69109206a02'
p1701
(dp1702
sS'ae82a91a4b0194bb66b2345133a2e217'
p1703
(dp1704
ssg442
(dp1705
g462
(dp1706
sS'556dd9a96763e9ab17ff8fd1f13a568e'
p1707
(dp1708
sS'd38ea6fb1d332a414afd2d589733ddf8'
p1709
g1669
sS'5afc19aa95bc4de1c4d27e8656bfebca'
p1710
g1036
ssg444
(dp1711
g316
g1460
sS'aa37de8324bab601a142ebda490c03e6'
p1712
g1385
sg260
g1350
ssg446
(dp1713
g1534
g1464
sg372
g1574
sS'90337298caf6f66181f914c47f7c0a3a'
p1714
(dp1715
sg1289
g1245
ssg448
(dp1716
g749
g1489
sS'0ff5dc3b2ad43fbe7c3a95d8eff324e9'
p1717
g926
ssg450
(dp1718
g1633
(dp1719
sg416
g1655
sS'db7819839b07388d2d660dc3c3835eff'
p1720
(dp1721
sS'e7f37fc91bf2617d00b8db57cd4ae3a8'
p1722
g705
ssg452
(dp1723
S'acce9cb835dbec9caad114012a8bad6b'
p1724
(dp1725
sS'3ad6c378f67c437387e33a4005ff34ce'
p1726
g792
sg552
(dp1727
ssg454
(dp1728
g814
g1541
sg878
g1412
ssg456
(dp1729
g1360
g838
sS'19669a4f74ab33e30482e5615a771681'
p1730
g1217
sS'0e271ba33e8f57d16b6ddbd1b917f4cd'
p1731
g1510
ssg458
(dp1732
g869
g1043
ssg460
(dp1733
g1358
(dp1734
sS'0f421f912c7ca0a76a6747beabc5d294'
p1735
(dp1736
sg354
g1545
sS'fbd6a14af4c5195aa3517524cb62efb3'
p1737
g1453
ssg462
(dp1738
S'e8b13ef2fe29f66e268603021b1075fd'
p1739
g1677
sS'4e8b3f74ccc37e7e1f699a02175f710c'
p1740
(dp1741
sg118
g987
sS'2622b1a889bacc614b182c89a75b2e87'
p1742
g1706
ssg464
(dp1743
g1709
g1671
sg986
g1741
ssg466
(dp1744
g1539
g877
sg41
g765
sg308
g1445
ssg468
(dp1745
S'ba9030a0234f307b1b4941beed38b0e8'
p1746
g677
sS'f18e1c7d1a3af77e4d0b78f99f40b7e0'
p1747
(dp1748
sg498
(dp1749
sg853
(dp1750
ssg470
(dp1751
S'0cc142f5b64e7bae478843d9b8ff5e02'
p1752
g745
sg604
(dp1753
sg798
g1549
sg1210
g1485
ssg472
(dp1754
S'c8e2f31f2aca8ee154fd54c0abf64723'
p1755
g1182
sg522
(dp1756
sS'cd1c59d76cb245630e3f6589baf99a34'
p1757
g1414
ssg474
(dp1758
S'37a9219b27ea2ff8b962211e9883184f'
p1759
g1390
sS'35d811735d66efe62f57f463b89b94ef'
p1760
g1062
sg908
g1048
ssg476
(dp1761
S'66c76107d4c8f2c72434cbd1a46220d4'
p1762
g1512
sS'08f5bfa6a82399c64ed7e1571487d4b3'
p1763
g1079
sg68
g848
ssg478
(dp1764
S'87403f88cfa84a847c19bfb03e5dd7e2'
p1765
g1191
sS'993ecb4cec37eae23dffc79473500ac8'
p1766
g1006
sg699
g1556
ssg480
(dp1767
g276
g1382
sg110
g962
sS'58c8eed3ee8533d713209fdde64b28de'
p1768
g1367
ssg482
(dp1769
S'0ff5dc3b2ad43fbe7c3a95d8eff324e9'
p1770
g928
sg784
g1365
sg100
g933
ssg484
(dp1771
g1132
g977
sg929
g755
ssg486
(dp1772
g1573
g1715
sg1243
(dp1773
sS'9219c259075750cd555933fc7cf56d03'
p1774
g1750
sg70
g854
ssg488
(dp1775
g1739
g1675
sS'e63dee03e96d7e76dbcc15b6c6ae76fb'
p1776
g985
sS'a40261cece0a410c8a6f5f82f2f8da62'
p1777
g692
sg212
g1236
ssg490
(dp1778
g1257
g766
sg550
(dp1779
sS'6d339c7fc1334869633c22c62768e60a'
p1780
g1596
sg1679
g1472
ssg492
(dp1781
S'8f0c77acde5cf82abe5ec3208b9d4a91'
p1782
g1562
sg1673
(dp1783
sg220
g1253
ssg494
(dp1784
g274
g1379
sS'9efb760618130780253c9a27170ec6cc'
p1785
(dp1786
ssg496
(dp1787
g1606
g1317
sS'33630f861f3fe893c3fe11b5066c7390'
p1788
g1560
ssg498
(dp1789
S'd28d63da54173784b1fd6cc2c077ada6'
p1790
g852
sS'9219c259075750cd555933fc7cf56d03'
p1791
g1749
ssg500
(dp1792
S'87f6c942be473b1bd0d9ee92bb069028'
p1793
g812
sg128
g1011
ssg502
(dp1794
g616
(dp1795
sg576
(dp1796
sg436
g1693
ssg504
(dp1797
g1187
g714
sg422
g1667
sS'633dc06861aaf17d9845e21ac4348397'
p1798
g695
sg1710
g1035
ssg506
(dp1799
g88
g900
sg76
g868
sS'f5ae3f8a0ba08ce7302a16ad0150ffce'
p1800
(dp1801
sS'29b464498739ab38b8dd8faf7164d56c'
p1802
(dp1803
ssg508
(dp1804
g1450
(dp1805
sg588
(dp1806
sg620
(dp1807
ssg510
(dp1808
g494
g1786
sS'26df66e0fecd80656eb5ce107511c3d6'
p1809
g1429
ssg512
(dp1810
g1679
g1470
sg506
g1803
sS'85cfa63ea09fdf97e007a13a6a201fb3'
p1811
(dp1812
sg578
(dp1813
sg741
g829
ssg514
(dp1814
g942
g1492
sS'54edde1ca744d978400eac7f9e4d936a'
p1815
g1684
sg174
g1138
sg1536
g1575
ssg516
(dp1816
S'1298c021bfc9be4b6c066648d3bcdb61'
p1817
g1166
sg306
g1441
ssg518
(dp1818
S'82350a728236bffde18b6aad25af463d'
p1819
g1309
sg1108
g959
sS'47a885da69e2601d9433f3bb83075740'
p1820
(dp1821
ssg520
(dp1822
g348
g1532
sS'33c73d0d08cb10f648cb17623e0fd85a'
p1823
g1311
ssg522
(dp1824
g644
(dp1825
sg460
g1736
sg1413
g1756
sS'de19bdfbff87ea956cc6b39b60749d10'
p1826
(dp1827
ssg524
(dp1828
S'ff356d849a39d64a191b945209a5b3a3'
p1829
(dp1830
sS'353ff5c4b43b181c89241af72f543f0c'
p1831
g1304
sg912
(dp1832
ssg526
(dp1833
g29
g722
sg1611
(dp1834
sg1171
(dp1835
sS'77cfaf99fe43a3163cc37b0cae0b14b9'
p1836
(dp1837
ssg528
(dp1838
S'37a9219b27ea2ff8b962211e9883184f'
p1839
g1393
sg724
g1614
sS'e7635585673c1a0d5adcf20518c95139'
p1840
g1341
ssg530
(dp1841
g420
g1665
sg1580
g1161
sg757
g1529
sg610
(dp1842
ssg532
(dp1843
g1420
g1650
sS'80f83fa93bb533b76747324825b8f544'
p1844
g1652
ssg534
(dp1845
g770
g1383
sg45
g779
sg410
g1640
sg542
(dp1846
ssg536
(dp1847
g1373
g1173
sg344
g1523
sg721
g1837
sS'1cb9356a13eead9ace65ce0ec1a9198f'
p1848
g1501
ssg538
(dp1849
g280
g1391
sg1124
g1267
sS'7e1bf74a58a884838af495c9f05ab583'
p1850
g1613
sg1616
g1278
sg148
g1064
ssg540
(dp1851
g146
g1059
sg1717
g930
sS'74c3e0530b3ca744097329d088ba7063'
p1852
g935
ssg542
(dp1853
g778
g1846
sS'f1f0082885429f9d1faafac0fd505619'
p1854
g860
sg1697
g970
sg324
g1481
ssg544
(dp1855
g96
g920
sg1250
g982
ssg546
(dp1856
g1746
g676
sg486
g1773
sg216
g1244
ssg548
(dp1857
g1791
g1748
sg244
g1313
sg678
g991
ssg550
(dp1858
S'7f6f879a50738d9c2a711ed6e199a3d2'
p1859
g837
sg206
g1213
sg1802
g1812
sg1595
g1779
ssg552
(dp1860
S'bca295bdb9fb2629b689f4e6eeb6d89f'
p1861
g1727
sg122
g996
sg1015
g1086
ssg554
(dp1862
S'3dc52cf8817fde6eff1198f93b9ef98c'
p1863
g1702
sg660
g1546
sS'0e271ba33e8f57d16b6ddbd1b917f4cd'
p1864
g1508
ssg556
(dp1865
g1315
g1299
sg1588
g1608
sg288
g1410
sS'6c097af53397ac95b142811ec9ba3aeb'
p1866
g1232
ssg558
(dp1867
g1580
g1160
sg346
g1527
ssg560
(dp1868
g966
g781
sS'148e61e310b797f2a6ef55c2b6f7034a'
p1869
g1643
sS'47a885da69e2601d9433f3bb83075740'
p1870
(dp1871
ssg562
(dp1872
g418
g1660
sg1712
g1386
sg952
g1294
sS'249a916a0b2b5d7e8ffb630a3a0961a6'
p1873
g1353
ssg564
(dp1874
g832
g1594
sg264
g1359
sS'9f2f3e166f39a6a421abe826785906a8'
p1875
g1734
sg1826
(dp1876
ssg566
(dp1877
g1496
g1376
sg60
g823
sg626
(dp1878
ssg568
(dp1879
g955
g1433
sS'39fa91c63a2a131a4be4b3dfd8a020a1'
p1880
g1871
sS'f200081c310934b99b6ca5426179a8c9'
p1881
g1821
ssg570
(dp1882
S'e669c7e039f8c52219f54b9c74afacfd'
p1883
g1591
sg384
g1600
sS'fc780d0577960adafc3a376acd558073'
p1884
g1474
sg162
g1098
ssg572
(dp1885
S'80f83fa93bb533b76747324825b8f544'
p1886
g1654
sS'e7f37fc91bf2617d00b8db57cd4ae3a8'
p1887
g706
ssg574
(dp1888
S'78428de00f528662924150b2fe84d7ea'
p1889
g1783
sg424
g1674
sg1742
g1708
sg1037
(dp1890
ssg576
(dp1891
g1692
g1796
sg1475
g1222
sg1476
g1586
ssg578
(dp1892
S'8bb4eb472300a642e1c92bce40e3bebb'
p1893
g906
sS'9de710853082bb0bd269f92e846c1918'
p1894
g872
sg1802
g1813
sS'19669a4f74ab33e30482e5615a771681'
p1895
g1215
ssg580
(dp1896
g1760
g1066
sg1616
g1283
ssg582
(dp1897
g238
g1296
sg1050
g1662
sg304
g1435
sg210
g1227
ssg584
(dp1898
g1249
g923
ssg586
(dp1899
g450
g1719
sS'f955db95ce757c6b56666b2781cb4029'
p1900
g1634
sg1274
g1105
sg707
g1398
ssg588
(dp1901
g404
g1629
sg402
g1626
sS'c9b7f1450087111f7de83095bd1061cf'
p1902
g1806
ssg590
(dp1903
S'3dc52cf8817fde6eff1198f93b9ef98c'
p1904
g1704
sS'0dad5012ee50100e6dbf4256215322b8'
p1905
g1071
sg1089
g739
ssg592
(dp1906
g1539
g880
sg1257
g768
sg382
g1598
sS'de19bdfbff87ea956cc6b39b60749d10'
p1907
(dp1908
ssg594
(dp1909
g1616
g1280
sS'40203f4c3cef60c14e5848081ebba3ca'
p1910
g1834
sg865
g783
sg392
g1612
ssg596
(dp1911
g1720
(dp1912
sg1844
g1657
sg414
g1648
ssg598
(dp1913
g298
g1427
sS'de3439e36ffc41507bc0dbcb648da62a'
p1914
g939
ssg600
(dp1915
g734
g666
sg340
g1513
sS'80d3d7776f4303ec847d84ba5c285345'
p1916
g884
sg154
g1080
ssg602
(dp1917
g564
g1876
sS'0f421f912c7ca0a76a6747beabc5d294'
p1918
g1827
sg878
g1415
sg1597
g1908
ssg604
(dp1919
g903
g1129
sg744
g1753
sS'd9859c35980c546799507f119648d78b'
p1920
g1208
ssg606
(dp1921
S'305b8a7e000f2dfe8c5b52e7d85fd49a'
p1922
g1235
sS'a40261cece0a410c8a6f5f82f2f8da62'
p1923
g688
sg642
(dp1924
ssg608
(dp1925
g114
g974
sg622
(dp1926
sg1134
g1690
ssg610
(dp1927
S'5b2944ecb71bd3cc2137b40235f4b255'
p1928
g760
sg1664
g1842
sS'e12525af8c81dc33728d80341bf2ff0d'
p1929
g1055
ssg612
(dp1930
S'f22b140d734b420c5bb6fc99c64d67ef'
p1931
g686
sg1565
g1418
ssg614
(dp1932
g1760
g1061
sg142
g1046
ssg616
(dp1933
g502
g1795
ssg618
(dp1934
g1782
g1564
sg681
g998
sg574
g1890
sS'5afc19aa95bc4de1c4d27e8656bfebca'
p1935
g1038
ssg620
(dp1936
S'945f6a4f7114d60675e68a2f8413f560'
p1937
g1630
sg1902
g1807
sg662
g1455
sg33
g738
ssg622
(dp1938
g973
g1926
sS'e292be882a5c971fe510f7452f4b83b7'
p1939
g1623
ssg624
(dp1940
S'7bcec2299d07485d97b8bffb142b561f'
p1941
g913
sg1301
g1522
sg524
g1832
sS'1cb9356a13eead9ace65ce0ec1a9198f'
p1942
g1497
ssg626
(dp1943
g94
g916
sS'8e8f14518858ff122394fc161757e877'
p1944
g1457
sg822
g1878
sg388
g1604
sg1942
g1499
ssg628
(dp1945
g840
g911
sS'a245e9cded718910a37a7136194ef257'
p1946
g1830
sS'58288b3f295d10184d0432addbad7818'
p1947
g804
sS'19867f3c0837bd0426e6faf24010669f'
p1948
g1248
ssg630
(dp1949
g1395
g1695
sg1887
g703
ssg632
(dp1950
g428
g1682
sg1621
g817
sg1542
g1446
ssg634
(dp1951
g793
g1321
sg156
g1083
sg1861
g1725
sS'10cf9d41a8595dc0d6f2d7941e666491'
p1952
g1493
ssg636
(dp1953
S'87403f88cfa84a847c19bfb03e5dd7e2'
p1954
g1189
sS'f22b140d734b420c5bb6fc99c64d67ef'
p1955
g684
sg999
g1286
ssg638
(dp1956
g1084
g941
sg1400
g1018
ssg640
(dp1957
g1679
g1468
sg867
g1801
ssg642
(dp1958
g1234
g1924
ssg644
(dp1959
g1735
g1825
sg508
g1805
sg312
g1451
ssg646
(dp1960
g596
g1912
sS'f955db95ce757c6b56666b2781cb4029'
p1961
g1632
sS'cf5d19b60c621292d50aa1a5512e4ee6'
p1962
g1721
ssg648
(dp1963
S'01913d1d8a6f142bb282c17a99d17f78'
p1964
g1172
sg526
g1835
sg865
g787
sg929
g753
ssg650
(dp1965
g1554
g697
sg1007
g1022
sssS'adj'
p1966
g657
sbsS'save_tmp'
p1967
I01
sS'use_cloud'
p1968
I01
sS'state'
p1969
(isrc.logic.state
State
p1970
(dp1971
S'map'
p1972
(isrc.logic.map
Map
p1973
(dp1974
S'tiles'
p1975
(lp1976
(lp1977
(isrc.logic.tile
Tile
p1978
(dp1979
g1972
g1973
sS'color'
p1980
(I20
I20
I20
tp1981
sS'surface'
p1982
NsS'v'
p1983
I0
sS'y'
p1984
I0
sS'x'
p1985
I0
sS'se'
p1986
Nsba(isrc.logic.tile
Tile
p1987
(dp1988
g1972
g1973
sg1980
g1981
sg1982
Nsg1983
I0
sg1984
I1
sg1985
I0
sg1986
Nsba(isrc.logic.tile
Tile
p1989
(dp1990
g1972
g1973
sg1980
g1981
sg1982
Nsg1983
I0
sg1984
I2
sg1985
I0
sg1986
(isrc.logic.snake
SnakeElement
p1991
(dp1992
g1984
I2
sg1985
I0
sS'snake'
p1993
(isrc.logic.snake
Snake
p1994
(dp1995
g1980
(I0
I0
I255
tp1996
sg1972
g1973
sS'elements'
p1997
(lp1998
(isrc.logic.snake
SnakeElement
p1999
(dp2000
g1984
I2
sg1985
I1
sg1993
g1994
sS'order'
p2001
Nsbag1991
a(isrc.logic.snake
SnakeElement
p2002
(dp2003
g1984
I3
sg1985
I0
sg1993
g1994
sg2001
Nsba(isrc.logic.snake
SnakeElement
p2004
(dp2005
g1984
I4
sg1985
I0
sg1993
g1994
sg2001
Nsba(isrc.logic.snake
SnakeElement
p2006
(dp2007
g1984
I4
sg1985
I1
sg1993
g1994
sg2001
Nsba(isrc.logic.snake
SnakeElement
p2008
(dp2009
g1984
I4
sg1985
I2
sg1993
g1994
sg2001
Nsba(isrc.logic.snake
SnakeElement
p2010
(dp2011
g1984
I4
sg1985
I3
sg1993
g1994
sg2001
Nsba(isrc.logic.snake
SnakeElement
p2012
(dp2013
g1984
I4
sg1985
I4
sg1993
g1994
sg2001
Nsbasg1982
Nsg1983
VB
p2014
sbsg2001
Nsbsba(isrc.logic.tile
Tile
p2015
(dp2016
g1972
g1973
sg1980
g1981
sg1982
Nsg1983
I0
sg1984
I3
sg1985
I0
sg1986
g2002
sba(isrc.logic.tile
Tile
p2017
(dp2018
g1972
g1973
sg1980
g1981
sg1982
Nsg1983
I0
sg1984
I4
sg1985
I0
sg1986
g2004
sbaa(lp2019
(isrc.logic.tile
Tile
p2020
(dp2021
g1972
g1973
sg1980
g1981
sg1982
Nsg1983
I0
sg1984
I0
sg1985
I1
sg1986
Nsba(isrc.logic.tile
Tile
p2022
(dp2023
g1972
g1973
sg1980
(I50
I50
I50
tp2024
sg1982
Nsg1983
I1
sg1984
I1
sg1985
I1
sg1986
Nsba(isrc.logic.tile
Tile
p2025
(dp2026
g1972
g1973
sg1980
g1981
sg1982
Nsg1983
I0
sg1984
I2
sg1985
I1
sg1986
g1999
sba(isrc.logic.tile
Tile
p2027
(dp2028
g1972
g1973
sg1980
g2024
sg1982
Nsg1983
I1
sg1984
I3
sg1985
I1
sg1986
Nsba(isrc.logic.tile
Tile
p2029
(dp2030
g1972
g1973
sg1980
g1981
sg1982
Nsg1983
I0
sg1984
I4
sg1985
I1
sg1986
g2006
sbaa(lp2031
(isrc.logic.tile
Tile
p2032
(dp2033
g1972
g1973
sg1980
g1981
sg1982
Nsg1983
I0
sg1984
I0
sg1985
I2
sg1986
Nsba(isrc.logic.tile
Tile
p2034
(dp2035
g1972
g1973
sg1980
g2024
sg1982
Nsg1983
I1
sg1984
I1
sg1985
I2
sg1986
Nsba(isrc.logic.tile
Tile
p2036
(dp2037
g1972
g1973
sg1980
g1981
sg1982
Nsg1983
I0
sg1984
I2
sg1985
I2
sg1986
(isrc.logic.snake
SnakeElement
p2038
(dp2039
g1984
I2
sg1985
I2
sg1993
(isrc.logic.snake
Snake
p2040
(dp2041
g1980
(I0
I255
I0
tp2042
sg1972
g1973
sg1997
(lp2043
g2038
a(isrc.logic.snake
SnakeElement
p2044
(dp2045
g1984
I2
sg1985
I3
sg1993
g2040
sg2001
Nsba(isrc.logic.snake
SnakeElement
p2046
(dp2047
g1984
I2
sg1985
I4
sg1993
g2040
sg2001
Nsbasg1982
Nsg1983
VG
p2048
sbsg2001
Nsbsba(isrc.logic.tile
Tile
p2049
(dp2050
g1972
g1973
sg1980
g2024
sg1982
Nsg1983
I1
sg1984
I3
sg1985
I2
sg1986
Nsba(isrc.logic.tile
Tile
p2051
(dp2052
g1972
g1973
sg1980
(I0
I102
I0
tp2053
sg1982
Nsg1983
Vg
p2054
sg1984
I4
sg1985
I2
sg1986
g2008
sbaa(lp2055
(isrc.logic.tile
Tile
p2056
(dp2057
g1972
g1973
sg1980
g1981
sg1982
Nsg1983
I0
sg1984
I0
sg1985
I3
sg1986
Nsba(isrc.logic.tile
Tile
p2058
(dp2059
g1972
g1973
sg1980
g2024
sg1982
Nsg1983
I1
sg1984
I1
sg1985
I3
sg1986
Nsba(isrc.logic.tile
Tile
p2060
(dp2061
g1972
g1973
sg1980
g1981
sg1982
Nsg1983
I0
sg1984
I2
sg1985
I3
sg1986
g2044
sba(isrc.logic.tile
Tile
p2062
(dp2063
g1972
g1973
sg1980
g2024
sg1982
Nsg1983
I1
sg1984
I3
sg1985
I3
sg1986
Nsba(isrc.logic.tile
Tile
p2064
(dp2065
g1972
g1973
sg1980
g2053
sg1982
Nsg1983
Vg
p2066
sg1984
I4
sg1985
I3
sg1986
g2010
sbaa(lp2067
(isrc.logic.tile
Tile
p2068
(dp2069
g1972
g1973
sg1980
g1981
sg1982
Nsg1983
I0
sg1984
I0
sg1985
I4
sg1986
Nsba(isrc.logic.tile
Tile
p2070
(dp2071
g1972
g1973
sg1980
g1981
sg1982
Nsg1983
I0
sg1984
I1
sg1985
I4
sg1986
Nsba(isrc.logic.tile
Tile
p2072
(dp2073
g1972
g1973
sg1980
g1981
sg1982
Nsg1983
I0
sg1984
I2
sg1985
I4
sg1986
g2046
sba(isrc.logic.tile
Tile
p2074
(dp2075
g1972
g1973
sg1980
g2024
sg1982
Nsg1983
I1
sg1984
I3
sg1985
I4
sg1986
Nsba(isrc.logic.tile
Tile
p2076
(dp2077
g1972
g1973
sg1980
g2053
sg1982
Nsg1983
Vg
p2078
sg1984
I4
sg1985
I4
sg1986
g2012
sbaasg1982
NsS'n'
p2079
I5
sS'size_px'
p2080
I300
sS'y_offset'
p2081
I0
sS'x_offset'
p2082
I0
sbsS'move'
p2083
NsS'snakes'
p2084
(lp2085
g1994
ag2040
asS'parent_state'
p2086
(isrc.logic.state
State
p2087
(dp2088
g1972
(isrc.logic.map
Map
p2089
(dp2090
g1975
(lp2091
(lp2092
(isrc.logic.tile
Tile
p2093
(dp2094
g1972
g2089
sg1980
g1981
sg1982
Nsg1983
I0
sg1984
I0
sg1985
I0
sg1986
Nsba(isrc.logic.tile
Tile
p2095
(dp2096
g1972
g2089
sg1980
g1981
sg1982
Nsg1983
I0
sg1984
I1
sg1985
I0
sg1986
Nsba(isrc.logic.tile
Tile
p2097
(dp2098
g1972
g2089
sg1980
g1981
sg1982
Nsg1983
I0
sg1984
I2
sg1985
I0
sg1986
(isrc.logic.snake
SnakeElement
p2099
(dp2100
g1984
I2
sg1985
I0
sg1993
(isrc.logic.snake
Snake
p2101
(dp2102
g1980
g1996
sg1972
g2089
sg1997
(lp2103
(isrc.logic.snake
SnakeElement
p2104
(dp2105
g1984
I2
sg1985
I1
sg1993
g2101
sg2001
Nsbag2099
a(isrc.logic.snake
SnakeElement
p2106
(dp2107
g1984
I3
sg1985
I0
sg1993
g2101
sg2001
Nsba(isrc.logic.snake
SnakeElement
p2108
(dp2109
g1984
I4
sg1985
I0
sg1993
g2101
sg2001
Nsba(isrc.logic.snake
SnakeElement
p2110
(dp2111
g1984
I4
sg1985
I1
sg1993
g2101
sg2001
Nsba(isrc.logic.snake
SnakeElement
p2112
(dp2113
g1984
I4
sg1985
I2
sg1993
g2101
sg2001
Nsba(isrc.logic.snake
SnakeElement
p2114
(dp2115
g1984
I4
sg1985
I3
sg1993
g2101
sg2001
Nsba(isrc.logic.snake
SnakeElement
p2116
(dp2117
g1984
I4
sg1985
I4
sg1993
g2101
sg2001
Nsbasg1982
Nsg1983
VB
p2118
sbsg2001
Nsbsba(isrc.logic.tile
Tile
p2119
(dp2120
g1972
g2089
sg1980
g1981
sg1982
Nsg1983
I0
sg1984
I3
sg1985
I0
sg1986
g2106
sba(isrc.logic.tile
Tile
p2121
(dp2122
g1972
g2089
sg1980
g1981
sg1982
Nsg1983
I0
sg1984
I4
sg1985
I0
sg1986
g2108
sbaa(lp2123
(isrc.logic.tile
Tile
p2124
(dp2125
g1972
g2089
sg1980
g1981
sg1982
Nsg1983
I0
sg1984
I0
sg1985
I1
sg1986
Nsba(isrc.logic.tile
Tile
p2126
(dp2127
g1972
g2089
sg1980
g2024
sg1982
Nsg1983
I1
sg1984
I1
sg1985
I1
sg1986
Nsba(isrc.logic.tile
Tile
p2128
(dp2129
g1972
g2089
sg1980
g1981
sg1982
Nsg1983
I0
sg1984
I2
sg1985
I1
sg1986
g2104
sba(isrc.logic.tile
Tile
p2130
(dp2131
g1972
g2089
sg1980
g2024
sg1982
Nsg1983
I1
sg1984
I3
sg1985
I1
sg1986
Nsba(isrc.logic.tile
Tile
p2132
(dp2133
g1972
g2089
sg1980
g1981
sg1982
Nsg1983
I0
sg1984
I4
sg1985
I1
sg1986
g2110
sbaa(lp2134
(isrc.logic.tile
Tile
p2135
(dp2136
g1972
g2089
sg1980
g1981
sg1982
Nsg1983
I0
sg1984
I0
sg1985
I2
sg1986
Nsba(isrc.logic.tile
Tile
p2137
(dp2138
g1972
g2089
sg1980
g2024
sg1982
Nsg1983
I1
sg1984
I1
sg1985
I2
sg1986
Nsba(isrc.logic.tile
Tile
p2139
(dp2140
g1972
g2089
sg1980
g1981
sg1982
Nsg1983
I0
sg1984
I2
sg1985
I2
sg1986
(isrc.logic.snake
SnakeElement
p2141
(dp2142
g1984
I2
sg1985
I2
sg1993
(isrc.logic.snake
Snake
p2143
(dp2144
g1980
g2042
sg1972
g2089
sg1997
(lp2145
g2141
a(isrc.logic.snake
SnakeElement
p2146
(dp2147
g1984
I2
sg1985
I3
sg1993
g2143
sg2001
Nsba(isrc.logic.snake
SnakeElement
p2148
(dp2149
g1984
I2
sg1985
I4
sg1993
g2143
sg2001
Nsbasg1982
Nsg1983
VG
p2150
sbsg2001
Nsbsba(isrc.logic.tile
Tile
p2151
(dp2152
g1972
g2089
sg1980
g2024
sg1982
Nsg1983
I1
sg1984
I3
sg1985
I2
sg1986
Nsba(isrc.logic.tile
Tile
p2153
(dp2154
g1972
g2089
sg1980
g2053
sg1982
Nsg1983
Vg
p2155
sg1984
I4
sg1985
I2
sg1986
g2112
sbaa(lp2156
(isrc.logic.tile
Tile
p2157
(dp2158
g1972
g2089
sg1980
g1981
sg1982
Nsg1983
I0
sg1984
I0
sg1985
I3
sg1986
Nsba(isrc.logic.tile
Tile
p2159
(dp2160
g1972
g2089
sg1980
g2024
sg1982
Nsg1983
I1
sg1984
I1
sg1985
I3
sg1986
Nsba(isrc.logic.tile
Tile
p2161
(dp2162
g1972
g2089
sg1980
g1981
sg1982
Nsg1983
I0
sg1984
I2
sg1985
I3
sg1986
g2146
sba(isrc.logic.tile
Tile
p2163
(dp2164
g1972
g2089
sg1980
g2024
sg1982
Nsg1983
I1
sg1984
I3
sg1985
I3
sg1986
Nsba(isrc.logic.tile
Tile
p2165
(dp2166
g1972
g2089
sg1980
g2053
sg1982
Nsg1983
Vg
p2167
sg1984
I4
sg1985
I3
sg1986
g2114
sbaa(lp2168
(isrc.logic.tile
Tile
p2169
(dp2170
g1972
g2089
sg1980
g1981
sg1982
Nsg1983
I0
sg1984
I0
sg1985
I4
sg1986
Nsba(isrc.logic.tile
Tile
p2171
(dp2172
g1972
g2089
sg1980
g1981
sg1982
Nsg1983
I0
sg1984
I1
sg1985
I4
sg1986
Nsba(isrc.logic.tile
Tile
p2173
(dp2174
g1972
g2089
sg1980
g1981
sg1982
Nsg1983
I0
sg1984
I2
sg1985
I4
sg1986
g2148
sba(isrc.logic.tile
Tile
p2175
(dp2176
g1972
g2089
sg1980
g2024
sg1982
Nsg1983
I1
sg1984
I3
sg1985
I4
sg1986
Nsba(isrc.logic.tile
Tile
p2177
(dp2178
g1972
g2089
sg1980
g2053
sg1982
Nsg1983
Vg
p2179
sg1984
I4
sg1985
I4
sg1986
g2116
sbaasg1982
Nsg2079
I5
sg2080
I300
sg2081
I0
sg2082
I0
sbsg2083
Nsg2084
(lp2180
g2101
ag2143
asg2086
NsbsbsS'debug_info'
p2181
NsS'MAX_RECURSION_DEPTH'
p2182
I10000
sS'l_shortest'
p2183
I21
sS'sols'
p2184
(lp2185
(lp2186
S'78a47ff38b66246e1e01eaf98f78bf14'
p2187
ag502
ag576
ag1475
ag380
ag570
ag384
ag134
ag356
ag184
ag558
ag346
ag370
ag31
ag727
ag1185
ag927
ag784
ag47
ag594
ag392
ag528
aa(lp2188
g2187
ag502
ag576
ag1475
ag380
ag570
ag384
ag134
ag356
ag184
ag558
ag346
ag370
ag31
ag727
ag1185
ag927
ag784
ag47
ag594
ag392
ag528
ag1840
aa(lp2189
g2187
ag502
ag576
ag1475
ag380
ag570
ag384
ag134
ag356
ag184
ag558
ag346
ag370
ag31
ag727
ag1185
ag927
ag784
ag47
ag594
ag392
ag528
ag1839
aa(lp2190
g2187
ag502
ag576
ag1475
ag380
ag570
ag384
ag134
ag356
ag184
ag558
ag346
ag370
ag31
ag727
ag1185
ag927
ag784
ag47
ag594
ag392
ag528
ag1839
ag1388
aa(lp2191
g2187
ag502
ag576
ag1475
ag380
ag570
ag384
ag134
ag356
ag184
ag558
ag346
ag370
ag31
ag727
ag1185
ag927
ag784
ag47
ag594
ag392
ag528
ag1839
ag1389
aa(lp2192
g2187
ag502
ag576
ag1475
ag380
ag570
ag384
ag134
ag356
ag184
ag558
ag346
ag370
ag31
ag727
ag1185
ag927
ag1770
ag925
ag749
ag188
ag536
ag344
ag240
aa(lp2193
g2187
ag502
ag576
ag1475
ag380
ag570
ag384
ag134
ag356
ag184
ag558
ag346
ag370
ag31
ag727
ag1185
ag927
ag784
ag47
ag594
ag392
ag528
ag1839
ag1388
ag1122
aa(lp2194
g2187
ag502
ag576
ag1475
ag380
ag570
ag384
ag134
ag356
ag184
ag558
ag346
ag370
ag31
ag727
ag1185
ag927
ag784
ag47
ag594
ag392
ag528
ag1839
ag1389
ag908
aa(lp2195
g2187
ag502
ag576
ag1475
ag380
ag570
ag384
ag134
ag356
ag184
ag558
ag346
ag370
ag31
ag727
ag1185
ag927
ag1770
ag925
ag749
ag188
ag536
ag344
ag240
ag1303
aa(lp2196
g2187
ag502
ag576
ag1475
ag380
ag570
ag384
ag134
ag356
ag184
ag558
ag346
ag370
ag31
ag727
ag1185
ag927
ag784
ag47
ag594
ag392
ag528
ag1839
ag1388
ag1122
ag1570
aa(lp2197
g2187
ag502
ag576
ag1475
ag380
ag570
ag384
ag134
ag356
ag184
ag558
ag346
ag370
ag31
ag727
ag1185
ag927
ag784
ag47
ag594
ag392
ag528
ag1839
ag1389
ag908
ag92
aa(lp2198
g2187
ag502
ag576
ag1475
ag380
ag570
ag384
ag134
ag356
ag184
ag558
ag346
ag370
ag31
ag727
ag1185
ag934
ag146
ag1057
ag1155
ag200
ag290
ag602
ag564
ag264
ag338
aa(lp2199
g2187
ag502
ag576
ag1475
ag380
ag570
ag384
ag134
ag356
ag184
ag558
ag346
ag370
ag31
ag727
ag1185
ag927
ag1770
ag925
ag749
ag188
ag536
ag344
ag1521
ag1941
ag628
aa(lp2200
g2187
ag502
ag576
ag1475
ag380
ag570
ag384
ag134
ag356
ag184
ag558
ag346
ag370
ag31
ag727
ag1185
ag927
ag1770
ag925
ag749
ag188
ag536
ag344
ag1521
ag1941
ag116
ag218
aa(lp2201
g2187
ag502
ag576
ag1475
ag380
ag570
ag384
ag134
ag356
ag184
ag558
ag346
ag370
ag31
ag727
ag1185
ag927
ag1770
ag925
ag749
ag188
ag536
ag344
ag1521
ag1941
ag628
ag1947
aa(lp2202
g2187
ag502
ag576
ag1475
ag380
ag570
ag384
ag134
ag356
ag184
ag558
ag346
ag370
ag31
ag727
ag1185
ag934
ag146
ag1057
ag1155
ag200
ag290
ag602
ag564
ag264
ag338
ag1509
aa(lp2203
g2187
ag502
ag576
ag1475
ag380
ag570
ag384
ag134
ag356
ag184
ag558
ag346
ag370
ag31
ag727
ag1185
ag927
ag784
ag47
ag594
ag392
ag528
ag1839
ag1388
ag1122
ag1570
ag1518
aa(lp2204
g2187
ag502
ag576
ag1475
ag380
ag570
ag384
ag134
ag356
ag184
ag558
ag346
ag370
ag31
ag727
ag1185
ag934
ag146
ag1057
ag1155
ag200
ag290
ag602
ag564
ag264
ag338
ag1507
aa(lp2205
g2187
ag502
ag576
ag1475
ag380
ag570
ag384
ag134
ag356
ag184
ag558
ag346
ag370
ag31
ag727
ag1185
ag927
ag1770
ag925
ag749
ag188
ag536
ag344
ag1521
ag1941
ag116
ag544
ag96
aa(lp2206
g2187
ag502
ag576
ag1475
ag380
ag570
ag384
ag134
ag356
ag184
ag558
ag346
ag370
ag31
ag727
ag1185
ag927
ag784
ag47
ag74
ag863
ag1141
ag1349
ag1712
ag562
ag418
ag1636
ag408
aa(lp2207
g2187
ag502
ag576
ag1475
ag380
ag570
ag384
ag134
ag356
ag184
ag558
ag346
ag370
ag31
ag727
ag1185
ag934
ag146
ag1057
ag1155
ag200
ag290
ag602
ag564
ag264
ag1360
ag836
ag206
aa(lp2208
g2187
ag502
ag576
ag1475
ag380
ag570
ag384
ag134
ag356
ag184
ag558
ag346
ag370
ag31
ag727
ag1185
ag934
ag146
ag1057
ag1155
ag200
ag290
ag602
ag564
ag264
ag1361
ag1544
ag440
aa(lp2209
g2187
ag502
ag576
ag1475
ag380
ag570
ag384
ag134
ag356
ag184
ag558
ag346
ag370
ag31
ag727
ag1185
ag934
ag146
ag1057
ag1155
ag200
ag290
ag602
ag564
ag264
ag1361
ag1544
ag440
ag1700
aa(lp2210
g2187
ag502
ag576
ag1475
ag380
ag570
ag384
ag134
ag356
ag184
ag558
ag346
ag370
ag31
ag727
ag1185
ag934
ag146
ag1057
ag1155
ag200
ag290
ag602
ag564
ag264
ag1360
ag836
ag1802
ag578
aa(lp2211
g2187
ag502
ag576
ag1475
ag380
ag570
ag384
ag134
ag356
ag184
ag558
ag346
ag370
ag31
ag727
ag1185
ag927
ag1770
ag925
ag749
ag188
ag536
ag344
ag1521
ag1941
ag116
ag544
ag96
ag584
aa(lp2212
g2187
ag502
ag576
ag1475
ag380
ag570
ag384
ag134
ag356
ag184
ag558
ag346
ag370
ag31
ag727
ag1185
ag934
ag146
ag1057
ag1155
ag200
ag290
ag602
ag564
ag264
ag1361
ag1544
ag440
ag1703
aa(lp2213
g2187
ag502
ag576
ag1475
ag380
ag570
ag384
ag134
ag356
ag184
ag558
ag346
ag370
ag31
ag727
ag1185
ag934
ag146
ag1057
ag1155
ag200
ag290
ag602
ag1597
ag1257
ag222
ag1258
ag426
ag62
ag90
aa(lp2214
g2187
ag502
ag576
ag1475
ag380
ag570
ag384
ag134
ag356
ag184
ag558
ag346
ag370
ag31
ag727
ag1185
ag934
ag146
ag1057
ag1155
ag200
ag290
ag602
ag564
ag264
ag1361
ag1544
ag440
ag1703
ag1905
aa(lp2215
g2187
ag502
ag576
ag1475
ag380
ag570
ag384
ag134
ag356
ag184
ag558
ag346
ag370
ag31
ag727
ag1185
ag934
ag146
ag1057
ag1155
ag200
ag290
ag602
ag564
ag264
ag1360
ag836
ag1802
ag506
ag76
aa(lp2216
g2187
ag502
ag576
ag1475
ag380
ag570
ag384
ag134
ag356
ag184
ag558
ag346
ag370
ag31
ag727
ag1185
ag934
ag146
ag1057
ag1155
ag200
ag290
ag602
ag564
ag264
ag1361
ag1544
ag600
ag154
ag476
aa(lp2217
g2187
ag502
ag576
ag1475
ag380
ag570
ag384
ag134
ag356
ag184
ag558
ag346
ag370
ag31
ag727
ag1185
ag934
ag146
ag1057
ag1155
ag200
ag290
ag602
ag564
ag264
ag1361
ag1544
ag600
ag154
ag476
ag68
aa(lp2218
g2187
ag502
ag576
ag1475
ag380
ag570
ag384
ag134
ag356
ag184
ag558
ag346
ag370
ag31
ag727
ag1185
ag934
ag146
ag1057
ag1155
ag200
ag290
ag602
ag564
ag264
ag1360
ag836
ag1802
ag506
ag88
ag140
aa(lp2219
g2187
ag502
ag576
ag1475
ag380
ag570
ag384
ag134
ag356
ag184
ag558
ag346
ag370
ag31
ag727
ag1185
ag934
ag146
ag1057
ag1155
ag200
ag290
ag602
ag1597
ag1257
ag222
ag1258
ag426
ag62
ag90
ag903
aa(lp2220
g2187
ag502
ag576
ag1475
ag380
ag570
ag384
ag134
ag356
ag184
ag558
ag346
ag370
ag31
ag727
ag1185
ag934
ag146
ag1057
ag1155
ag200
ag290
ag602
ag564
ag264
ag1361
ag1544
ag440
ag1703
ag1905
ag1072
aa(lp2221
g2187
ag502
ag576
ag1475
ag380
ag570
ag384
ag134
ag356
ag184
ag558
ag346
ag370
ag31
ag727
ag1185
ag934
ag146
ag1057
ag1155
ag200
ag290
ag602
ag1597
ag1257
ag222
ag1258
ag426
ag62
ag90
ag903
ag1128
aa(lp2222
g2187
ag502
ag576
ag1475
ag380
ag570
ag384
ag134
ag356
ag184
ag558
ag346
ag370
ag31
ag727
ag1185
ag934
ag146
ag1057
ag1155
ag200
ag290
ag602
ag564
ag264
ag1360
ag836
ag1802
ag506
ag88
ag140
ag458
aasS'use_temp'
p2223
I01
sS'quit_on_first'
p2224
I00
sb.