(isrc.solve.solver
Solver
p0
(dp1
S'gr'
p2
ccopy_reg
_reconstructor
p3
(cnetworkx.classes.graph
Graph
p4
c__builtin__
object
p5
Ntp6
Rp7
(dp8
S'node'
p9
(dp10
S'41093aac70199b616a6739dec92ffd4d'
p11
(dp12
sS'37bdda72b9a3fe4ee6c11a58880d022b'
p13
(dp14
sS'0239a3f0e35168e814964324b69cc10d'
p15
(dp16
sS'c70cec4b38fff140fc4a967804182e2c'
p17
(dp18
S'complete'
p19
I01
ssS'008d17117520cf02d60ed16ffdb97c49'
p20
(dp21
sS'e8dca1d16633ca9d9446ab2c70d555f3'
p22
(dp23
sS'c98d4f5febd05e163c9ea22597140449'
p24
(dp25
sS'3e93f7dbe875b3f08f6a848d2244a60e'
p26
(dp27
sS'789e87fc71c2265522a31e4ad87797af'
p28
(dp29
sS'480fd85c3d442dba5bfb9fddd8052347'
p30
(dp31
sS'016bd2f92e0bb54230157e2c425c83a3'
p32
(dp33
g19
I01
ssS'c59a7402dddd40a59f68b3f98b970224'
p34
(dp35
sS'0413fe6b7528eeda38802b1c6ad241d2'
p36
(dp37
sS'4e095ee39ece381ec33c73b7b7c7da79'
p38
(dp39
sS'6c509b7c01e4db75ff1bcbfa4c957287'
p40
(dp41
sS'c224768b80f3dc09a1a71a634c442ef8'
p42
(dp43
sS'b88cb63518bfcad99c1d6db36b174a27'
p44
(dp45
sS'ebbadc83ee382eea2724c317aa874707'
p46
(dp47
sS'0dad3cfa20daf9f51a825601ef1c9749'
p48
(dp49
sS'c9b68a522a761a122ee06aa5ba1cb022'
p50
(dp51
g19
I01
ssS'367395255e0b532de4d71f91ada643a7'
p52
(dp53
sS'b1ae2cbb80fbdd36182c3c8b6457e12a'
p54
(dp55
sS'e5c4a5520452e2f6e16a2bab15a8cadf'
p56
(dp57
sS'6cab72da9f7579cd3fcc4e17c68a49d7'
p58
(dp59
sS'75c8b5277c8ca35e7e8d62d3b06b23b6'
p60
(dp61
g19
I01
ssS'b4dc4196c7baa86a4c1f1cb3cb166752'
p62
(dp63
sS'5f2d5f0130a9d34de4f1da8f7a351f87'
p64
(dp65
sS'a9b53140bcad66d853f2efc257753c17'
p66
(dp67
sS'0ec28fa733c40f660640661be7521d2c'
p68
(dp69
sS'75b21d90bb331f6c8e04305fba1b9f8a'
p70
(dp71
sS'76e8134cb25a64d8f98c6c43c6161da9'
p72
(dp73
sS'01f3ea9969d01814147c6436cf6d455e'
p74
(dp75
sS'089705f9daaa052a79750ecff7f3daac'
p76
(dp77
sS'aaa0af98e621204e063e30414732caf8'
p78
(dp79
sS'4f1ee4265713645c36d9a231c6b08693'
p80
(dp81
sS'beda67041211fbfa34018e09188af399'
p82
(dp83
g19
I01
ssS'954df4b902e299eb252c1cb9319cc5d9'
p84
(dp85
sS'693cbb0f0b79c46fd3d54b8e6d22dc15'
p86
(dp87
sS'5f6be2e589c7ab892e89d3f3a8131019'
p88
(dp89
sS'779a0eb5d0aa3ad08d80cb8712236fb6'
p90
(dp91
sS'9e70ee2a4550e1d199029c287af239b5'
p92
(dp93
sS'0657f416aa20f82bae91b677c28d7833'
p94
(dp95
sS'3bfd3e585aa35aa4de12ac81fdfd0ecb'
p96
(dp97
sS'2dbd2302869f1b9ba453793542c4907e'
p98
(dp99
sS'e49721cda591f76302cb386c7022c643'
p100
(dp101
sS'754396117434fc00650cffff99ab5bb2'
p102
(dp103
g19
I01
ssS'349439c580d9d679f5ecedd8d79d78d0'
p104
(dp105
sS'9c2a01404da31c552a5d65c83b94adaa'
p106
(dp107
sS'f28f95a11ea777222112c4fc1b575984'
p108
(dp109
sS'e2818125a6be1ddea64c0b5ca86af3d2'
p110
(dp111
sS'51cb87d0c418ca99c8c9276676d161f7'
p112
(dp113
sS'd5a648bf15833c8dd3d2c331a29764f1'
p114
(dp115
sS'08d03cb22360a09e6383eac62477e3eb'
p116
(dp117
sS'70b4c4f8086ee34753ef3355591875d7'
p118
(dp119
sS'1bf4d09a2f466f069edb4b2821eeb3ee'
p120
(dp121
sS'e8d62a9b277a5bfa8901527a5511ccb8'
p122
(dp123
sS'29c8f426ddaa19b89e1559caa32c43ca'
p124
(dp125
sS'dc4bad880072c93ddbf759d8290da984'
p126
(dp127
sS'eff5414f07ffac793ca38ac9beee1912'
p128
(dp129
sS'f55bb71baae2d60758519f16406f86fa'
p130
(dp131
sS'07326591c0814ad457933af346031e45'
p132
(dp133
sS'49d022f44f19c0d745b38df93ce45340'
p134
(dp135
sS'fbe679a915ca31497681cc6486781ef9'
p136
(dp137
sS'bb80b3a9788b0d4c2e7b270da2efba7f'
p138
(dp139
sS'97d4f5bdcd8a6292a302b05485ae3cb3'
p140
(dp141
sS'1c698e0eabd8610c24d22fc7e6473eda'
p142
(dp143
sS'b1062ab45cde7dfd003cd594578ca5ff'
p144
(dp145
sS'f5456e6175a6ffca3269ec7ccaf02c5e'
p146
(dp147
sS'1a25f4fe7a35d8c4e179ad6aef3efff5'
p148
(dp149
sS'cf41fb71474dad223a21a13cd090db6a'
p150
(dp151
sS'1d0ab418708adea5415d541214cd9a16'
p152
(dp153
sS'1417d145c33698ff0b89bfaa73f77a63'
p154
(dp155
g19
I01
ssS'7505e557ae7f0cccd5d54144667b381d'
p156
(dp157
sS'551956ae949f22fc4c8d994251419766'
p158
(dp159
sS'4f0c4ff85a9198711b648d0ddf3d92d2'
p160
(dp161
sS'926f0d2dc38a3ba23cb03f8532f0f7f9'
p162
(dp163
sS'828b2f35e5a3e6e9a55245887cd85f34'
p164
(dp165
sS'5f60cee783472a08a36d4f6c7e0bdfe2'
p166
(dp167
sS'7a99f8bf5b9a1eb9d325b0e620c1d455'
p168
(dp169
sS'bf6a0ef05a7e99a0343404b88a82924d'
p170
(dp171
sS'2b7ca041e2b5c185d98691402ba92807'
p172
(dp173
g19
I01
ssS'b03649bced0b66b8761ceb633638b99b'
p174
(dp175
sS'93c856e67645aa34b5f8c4daa8a9f931'
p176
(dp177
sS'6987ed49450288e59ed84a5b4409d960'
p178
(dp179
sS'a7f32da45356d7a8ff9ccb6e4795968b'
p180
(dp181
sS'6c38ec35aec323909af2b4300cb59962'
p182
(dp183
sS'0a4533d91cdeea6c5bd37aa151ef9168'
p184
(dp185
sS'678e014a3d76f5f5b83fa694967b9cda'
p186
(dp187
sS'd251e28c809706138c1b5db0f14431e8'
p188
(dp189
g19
I01
ssS'a40e29230f1017fd462560cac246d15b'
p190
(dp191
sS'8cf6b0f325df800cb14b703bc6e8a778'
p192
(dp193
sS'01ed68c90a4c5669d08f3d178fa0eefc'
p194
(dp195
g19
I01
ssS'3fe668a455d10d8b89ebf267f0022459'
p196
(dp197
sS'f58e8f08d16a09ce573f6e20e0afbc20'
p198
(dp199
sS'6f21270daeffec0105ee96d80bdb5a4f'
p200
(dp201
sS'7b699e9208f07936f25f2cfedbdc1b77'
p202
(dp203
sS'33b15ce887d0aa877cd63a87878a61c7'
p204
(dp205
sS'8a969d4a019059d41709b61d6f352cc6'
p206
(dp207
sS'cdb99aed2cbd6f8cd3f6e26d0297581f'
p208
(dp209
sS'b24fe8d3aea470dbfe3d64948a31300c'
p210
(dp211
sS'ec54c132a0142ec3a604bfbd0d303e0f'
p212
(dp213
sS'da4b38ba239ed48ee356f8ac3407705f'
p214
(dp215
sS'0e7ceed39f9148b2d3e3198a76f1504e'
p216
(dp217
sS'eebc1caafaf0e29fb041d6405344848e'
p218
(dp219
sS'f7219998760e488633810d45da9baaa9'
p220
(dp221
sS'2d13539f0d87a9ca2c7687b907ee90f0'
p222
(dp223
sS'e7cacd8a7d9c14fe81872d218bbd9b62'
p224
(dp225
sS'6cfe7dc129c92df39328ae10ac30a426'
p226
(dp227
sS'8d4a1e03bf2df126471116c54b3f7fec'
p228
(dp229
sS'bc6b60e8dd779d99ac7da2a98feadd8a'
p230
(dp231
sS'b1cce5fa7a0599987b7ca5379218229a'
p232
(dp233
sS'2bcd8fe2e7d52ac955fcfa9a360b481b'
p234
(dp235
sS'f331e9bf969acaddf8a5220919284e54'
p236
(dp237
sS'8fcae94b2bd503807c10032847d38d22'
p238
(dp239
sS'805082289747a3a2795dc61c9c6cb880'
p240
(dp241
sS'c22fce98bb2d1863e184602cec16cf71'
p242
(dp243
sS'156030bc6eae106e116bed129d628c9f'
p244
(dp245
sS'0c29b2adba0536de3d1132bd25f3ba2c'
p246
(dp247
sS'fb763c6a3296f49fb9a622448622e622'
p248
(dp249
sS'd2ca22ac33ad04108544e3d97620cdcf'
p250
(dp251
sS'5e31449adfcbadc53e2a35eac4a05f2b'
p252
(dp253
sS'a33eab5726d3b2d670e0470467c0cab4'
p254
(dp255
sS'14236fb3f7fd99ea729423f6758863b6'
p256
(dp257
sS'2ae1a00d79a1397e92ecd5cf04ce86ca'
p258
(dp259
sS'eedec3e6d6c1eb09eaf37957b018d87b'
p260
(dp261
g19
I01
ssS'6f6ffc4718c847fbf9e11dc455a73353'
p262
(dp263
sS'd79febfab73cd45daea3e202cf129254'
p264
(dp265
sS'c6afc148f72dd84bc66238bb78864fdd'
p266
(dp267
sS'98fb3069921afa344333d77ae3e915a8'
p268
(dp269
sS'f816d650c4bf4936a126f34eeb3eb7a2'
p270
(dp271
sS'090d6ca189858c61f378e65367394253'
p272
(dp273
sS'648bc66f1b7966de0115db3c3d32446e'
p274
(dp275
sS'30db44df27f7101f52e57b1b6217e821'
p276
(dp277
sS'b870e5236ad0c21fdf4add608b899b7f'
p278
(dp279
sS'451f1297b3124cb2e485bc12623d1b37'
p280
(dp281
sS'ecd3d6c569869bfefc5e7668eadd984d'
p282
(dp283
sS'cf4f6c34972b6f4efb0474d39d96fe8b'
p284
(dp285
sS'a619b6dacee6dc1dbf17b0c08db819e4'
p286
(dp287
sS'e90d4a3c0e07c73e0984c9a42443e732'
p288
(dp289
sS'016a43132f00de57b96def3cba1f1390'
p290
(dp291
sS'524d8bedac8854832aea4f2122ab628e'
p292
(dp293
sS'4f0b35f5e0acda5be10ed9fa69f60815'
p294
(dp295
sS'60f8aab6ad7ff35cc94c05fe46fc9db6'
p296
(dp297
sS'c04b10015224f63b78066632d452728e'
p298
(dp299
sS'b3e3c6ff55dd9ffa9f7e87022307e967'
p300
(dp301
sS'fdeb5709f93ec9eee565933e8374bfeb'
p302
(dp303
sS'1f3da3078fd9d7409e11ef0a23b3307e'
p304
(dp305
g19
I01
ssS'914699328357952344a2a3ac856d5fa4'
p306
(dp307
sS'1d68a211c94a478ef1c0dd3ae370432a'
p308
(dp309
sS'9e0691d2c8b660eb0f00df477dd4a986'
p310
(dp311
sS'f9ff3d8cb5c353082913eaea0727ea02'
p312
(dp313
sS'ee928b66b5bf1fe7f60d1968e91c9075'
p314
(dp315
g19
I01
ssS'2136618eab5fd2cab23f0c00f3d2a384'
p316
(dp317
sS'7f568cba75dd3f290e4526cd9adb573d'
p318
(dp319
sS'5cb465a9429b30fd02108b893e35af81'
p320
(dp321
sS'5c395ff4f2b561b19af4677208cfed19'
p322
(dp323
sS'd38c25a418d556ec0c3da5068dd095cf'
p324
(dp325
sS'8c45dea6846647dbdb46d244d8f459cf'
p326
(dp327
sS'8057bc90ec595261daa8e861fe360f3d'
p328
(dp329
sS'2be094cc5f5feb78fc9369b04cf12faa'
p330
(dp331
sS'7f649d7fc3a81c80b8cbcf2e8e65c434'
p332
(dp333
sS'66fd3f88352ae29da12a810a4a7e64a9'
p334
(dp335
sS'082185bc8f7848f028b46afe5c16aad8'
p336
(dp337
g19
I01
ssS'aba2e6d6af9fc16b147d91d5740f4ae7'
p338
(dp339
sS'e2471f5279729eb314c4f9e307d9e1a1'
p340
(dp341
sS'2efba0ba519c96275c927b957733dfc7'
p342
(dp343
sS'0cb6df93be4a3534c40fa7ba3acd18e4'
p344
(dp345
sS'e3ac71d8f3d474fd984ecbf817d0a6d5'
p346
(dp347
sS'70fc2eef6f3b5065fd547c9f62f0ced7'
p348
(dp349
sS'f87193704e04c7e127fa97935ad2af5e'
p350
(dp351
sS'045665f0157e8a3cbe8399a61dcd2446'
p352
(dp353
sS'317ab30ef1f9c69483ae4ccf3eda8555'
p354
(dp355
sS'9aea46db2d359322f51ad5f8e879d3a3'
p356
(dp357
sS'2894ac2517892ad378d2e2178bb0ddf2'
p358
(dp359
sS'31d2b328666cac5f071705f4c62ff1bc'
p360
(dp361
sS'48f87a9d59bc6ba54336fabb54b383b7'
p362
(dp363
sS'1eaa5270c9141fd8e7758e467779872b'
p364
(dp365
sS'551ab560b84842e1a1fa5611b3f5c7cf'
p366
(dp367
sS'8e02d6d5165534e71569c5dc0b76c291'
p368
(dp369
sS'bbd8d3745c8fddc0c5454c619f76282c'
p370
(dp371
g19
I01
ssS'34ba42cebe3b27352e4b88ed88de12a9'
p372
(dp373
sS'a854270bedb7f0971849c92d795a2af4'
p374
(dp375
sS'1f996002f9634cf444323e5471f5fea1'
p376
(dp377
sS'1bdd18500b4a9b1dd702ea0086e50ba2'
p378
(dp379
sS'7309bea2182af264dce8c41a2747ad84'
p380
(dp381
sS'112cd7568174b5ca32971df9af42cb16'
p382
(dp383
sS'09d7c6f36dca303b01500f080d42ffc7'
p384
(dp385
sS'a2772301ca3279cd7bac3b2d59780e91'
p386
(dp387
sS'48209f4979dfc9e2c4c78ce9b3ab21b6'
p388
(dp389
sS'a3d9211c32105e568b346ce68e3b2be0'
p390
(dp391
sS'de18f3628711f42b1e68aeae328d0579'
p392
(dp393
sS'f63b3e27b3cfb9906e2238f4137de344'
p394
(dp395
sS'cca5f49b26211007e955bdb8c3f9be59'
p396
(dp397
sS'68a2d9637a203a1eff38ec8fd551b471'
p398
(dp399
g19
I01
ssS'a2dcb74bd4ae9f376ec08aa58a3e124b'
p400
(dp401
sS'16244d048d2d5ca04cdb877583b55528'
p402
(dp403
sS'893896000ecc0a1108ed7428e6344375'
p404
(dp405
sS'8b0ec8a771e0f62f836f38b2191e3813'
p406
(dp407
g19
I01
ssS'5fa6338800742fc7a88abae6ae6a6c7c'
p408
(dp409
sS'a3242f33cd3e5a052ca66177917429e0'
p410
(dp411
g19
I01
ssS'ec2defb514b84430895644a9c29f5c23'
p412
(dp413
sS'f759f87fe6ef9686fb43072716956ee8'
p414
(dp415
sS'3bd0f89664f7ae67f38990559fa7a3bc'
p416
(dp417
sS'cdbaca22cb0b7e9c3982011cb731ee5d'
p418
(dp419
sS'b5b9198ba3f8128425fa38997f287d27'
p420
(dp421
sS'1821cbaf1f748e4f0c7cae0fdc47ec6f'
p422
(dp423
sS'7ce8d48b292f21dce904db115c2c3999'
p424
(dp425
sS'a8443a8a3f4e84eac9537319a106b6f3'
p426
(dp427
sS'd5e5bc2685da8a79c9c34881fb1b5be5'
p428
(dp429
sS'82c0a5c5805850470820faa4707c925c'
p430
(dp431
sS'1f9dd70b4583beccc4f83df56759b6bf'
p432
(dp433
sS'0faa4f29ed4d635f6ab459d232a636c4'
p434
(dp435
sS'0d7d788a866dff957d9b861687e6176d'
p436
(dp437
sS'8e2fdfaa08565dee2d1cb1d84dd7c0ab'
p438
(dp439
g19
I01
ssS'5a7d895bc5c57e1c8e985f228c0e9fa9'
p440
(dp441
sS'e559c3ba1db9a6f8ea5a21c03ce9b8c7'
p442
(dp443
sS'76e4701bfed8891c89462984731acc66'
p444
(dp445
sS'34273c39043441bc2c441ab70885f7fb'
p446
(dp447
sS'c35c51e85a433a4e3caf1ac470ffbbca'
p448
(dp449
sS'2b3814e748d1e6c15991cbe31dc7a1d8'
p450
(dp451
sS'7da928ccd02699ee350444c3419dbaf1'
p452
(dp453
g19
I01
ssS'c83d158d277f4072eb525972b046684d'
p454
(dp455
sS'0621a2ee6694731619756ff3cc288c62'
p456
(dp457
sS'782db467e38971b23941cfb9d8764f6e'
p458
(dp459
sS'21677bd025ad95a48a2081d4ea362fab'
p460
(dp461
sS'91ba1b2e9586af088c2a73cd19167502'
p462
(dp463
sS'c61c92c84dd70f3415e84ddba4472072'
p464
(dp465
sS'ba1872cf652b74acac610ca86aa2cd0e'
p466
(dp467
sS'6331df88b8a452f872a6ef01ee51d1a4'
p468
(dp469
ssS'graph'
p470
(dp471
S'finals'
p472
(lp473
g82
ag398
ag410
ag17
ag102
ag50
ag304
ag194
ag32
ag370
ag188
ag154
ag60
ag336
ag438
ag260
ag172
ag452
ag314
ag406
assS'edge'
p474
(dp475
g11
(dp476
g382
(dp477
sS'd2ca22ac33ad04108544e3d97620cdcf'
p478
(dp479
ssg13
(dp480
S'e2471f5279729eb314c4f9e307d9e1a1'
p481
(dp482
sg464
(dp483
ssg15
(dp484
S'8cf6b0f325df800cb14b703bc6e8a778'
p485
(dp486
sg258
(dp487
sS'156030bc6eae106e116bed129d628c9f'
p488
(dp489
sS'914699328357952344a2a3ac856d5fa4'
p490
(dp491
ssg17
(dp492
S'a3242f33cd3e5a052ca66177917429e0'
p493
(dp494
sg102
(dp495
ssg20
(dp496
S'5c395ff4f2b561b19af4677208cfed19'
p497
(dp498
sS'f7219998760e488633810d45da9baaa9'
p499
(dp500
sg174
(dp501
ssg22
(dp502
S'01f3ea9969d01814147c6436cf6d455e'
p503
(dp504
sg428
(dp505
sS'91ba1b2e9586af088c2a73cd19167502'
p506
(dp507
sS'8c45dea6846647dbdb46d244d8f459cf'
p508
(dp509
ssg24
(dp510
S'33b15ce887d0aa877cd63a87878a61c7'
p511
(dp512
sg260
(dp513
ssg26
(dp514
S'b03649bced0b66b8761ceb633638b99b'
p515
(dp516
sg386
(dp517
ssg28
(dp518
S'c224768b80f3dc09a1a71a634c442ef8'
p519
(dp520
sS'b870e5236ad0c21fdf4add608b899b7f'
p521
(dp522
sg78
(dp523
sg128
(dp524
sS'29c8f426ddaa19b89e1559caa32c43ca'
p525
(dp526
ssg30
(dp527
S'bf6a0ef05a7e99a0343404b88a82924d'
p528
(dp529
ssg32
(dp530
S'01ed68c90a4c5669d08f3d178fa0eefc'
p531
(dp532
sg130
(dp533
sg94
(dp534
ssg34
(dp535
S'f28f95a11ea777222112c4fc1b575984'
p536
(dp537
ssg36
(dp538
g76
(dp539
sS'a40e29230f1017fd462560cac246d15b'
p540
(dp541
sS'3fe668a455d10d8b89ebf267f0022459'
p542
(dp543
sS'b24fe8d3aea470dbfe3d64948a31300c'
p544
(dp545
sS'7309bea2182af264dce8c41a2747ad84'
p546
(dp547
ssg38
(dp548
S'75c8b5277c8ca35e7e8d62d3b06b23b6'
p549
(dp550
sS'60f8aab6ad7ff35cc94c05fe46fc9db6'
p551
(dp552
sg120
(dp553
ssg40
(dp554
S'1821cbaf1f748e4f0c7cae0fdc47ec6f'
p555
(dp556
ssg42
(dp557
S'5f2d5f0130a9d34de4f1da8f7a351f87'
p558
(dp559
sS'789e87fc71c2265522a31e4ad87797af'
p560
g520
sg288
(dp561
ssg44
(dp562
S'ba1872cf652b74acac610ca86aa2cd0e'
p563
(dp564
sg420
(dp565
ssg46
(dp566
S'd79febfab73cd45daea3e202cf129254'
p567
(dp568
sS'c04b10015224f63b78066632d452728e'
p569
(dp570
ssg48
(dp571
S'045665f0157e8a3cbe8399a61dcd2446'
p572
(dp573
sS'48f87a9d59bc6ba54336fabb54b383b7'
p574
(dp575
sS'6987ed49450288e59ed84a5b4409d960'
p576
(dp577
ssg50
(dp578
g256
(dp579
sg304
(dp580
sS'754396117434fc00650cffff99ab5bb2'
p581
(dp582
ssg52
(dp583
S'1821cbaf1f748e4f0c7cae0fdc47ec6f'
p584
(dp585
sS'7505e557ae7f0cccd5d54144667b381d'
p586
(dp587
ssg54
(dp588
g80
(dp589
sS'1417d145c33698ff0b89bfaa73f77a63'
p590
(dp591
ssg56
(dp592
S'c83d158d277f4072eb525972b046684d'
p593
(dp594
sS'e2818125a6be1ddea64c0b5ca86af3d2'
p595
(dp596
sS'bc6b60e8dd779d99ac7da2a98feadd8a'
p597
(dp598
ssg58
(dp599
g152
(dp600
sS'eff5414f07ffac793ca38ac9beee1912'
p601
(dp602
sg350
(dp603
ssg60
(dp604
S'd251e28c809706138c1b5db0f14431e8'
p605
(dp606
sg38
g550
ssg62
(dp607
g266
(dp608
sS'51cb87d0c418ca99c8c9276676d161f7'
p609
(dp610
sS'a33eab5726d3b2d670e0470467c0cab4'
p611
(dp612
sS'b1cce5fa7a0599987b7ca5379218229a'
p613
(dp614
ssg64
(dp615
g42
g559
sg278
(dp616
sS'a9b53140bcad66d853f2efc257753c17'
p617
(dp618
ssg66
(dp619
g64
g618
sS'a2772301ca3279cd7bac3b2d59780e91'
p620
(dp621
sS'7b699e9208f07936f25f2cfedbdc1b77'
p622
(dp623
ssg68
(dp624
S'cca5f49b26211007e955bdb8c3f9be59'
p625
(dp626
sg192
(dp627
sg490
(dp628
ssg70
(dp629
S'8d4a1e03bf2df126471116c54b3f7fec'
p630
(dp631
sS'cdbaca22cb0b7e9c3982011cb731ee5d'
p632
(dp633
sS'6331df88b8a452f872a6ef01ee51d1a4'
p634
(dp635
ssg72
(dp636
S'112cd7568174b5ca32971df9af42cb16'
p637
(dp638
sg478
(dp639
ssg74
(dp640
g360
(dp641
sg22
g504
sS'c61c92c84dd70f3415e84ddba4472072'
p642
(dp643
sg276
(dp644
ssg76
(dp645
S'349439c580d9d679f5ecedd8d79d78d0'
p646
(dp647
sS'f9ff3d8cb5c353082913eaea0727ea02'
p648
(dp649
sS'0413fe6b7528eeda38802b1c6ad241d2'
p650
g539
sS'3bd0f89664f7ae67f38990559fa7a3bc'
p651
(dp652
ssg78
(dp653
S'd5a648bf15833c8dd3d2c331a29764f1'
p654
(dp655
sg460
(dp656
sg560
g523
sS'e90d4a3c0e07c73e0984c9a42443e732'
p657
(dp658
ssg80
(dp659
S'b1ae2cbb80fbdd36182c3c8b6457e12a'
p660
g589
ssg82
(dp661
S'68a2d9637a203a1eff38ec8fd551b471'
p662
(dp663
sS'08d03cb22360a09e6383eac62477e3eb'
p664
(dp665
sg194
(dp666
ssg84
(dp667
g224
(dp668
sS'49d022f44f19c0d745b38df93ce45340'
p669
(dp670
sg356
(dp671
sg328
(dp672
ssg86
(dp673
S'524d8bedac8854832aea4f2122ab628e'
p674
(dp675
sg118
(dp676
ssg88
(dp677
g388
(dp678
sg632
(dp679
sg468
(dp680
ssg90
(dp681
S'14236fb3f7fd99ea729423f6758863b6'
p682
(dp683
sg196
(dp684
sg210
(dp685
sS'1f3da3078fd9d7409e11ef0a23b3307e'
p686
(dp687
ssg92
(dp688
S'5f60cee783472a08a36d4f6c7e0bdfe2'
p689
(dp690
sS'09d7c6f36dca303b01500f080d42ffc7'
p691
(dp692
ssg94
(dp693
S'016bd2f92e0bb54230157e2c425c83a3'
p694
g534
ssg96
(dp695
g436
(dp696
sS'34273c39043441bc2c441ab70885f7fb'
p697
(dp698
sg378
(dp699
ssg98
(dp700
S'1f996002f9634cf444323e5471f5fea1'
p701
(dp702
sS'f816d650c4bf4936a126f34eeb3eb7a2'
p703
(dp704
ssg100
(dp705
S'31d2b328666cac5f071705f4c62ff1bc'
p706
(dp707
sS'30db44df27f7101f52e57b1b6217e821'
p708
(dp709
ssg102
(dp710
S'c70cec4b38fff140fc4a967804182e2c'
p711
g495
sg50
g582
ssg104
(dp712
S'089705f9daaa052a79750ecff7f3daac'
p713
g647
sg546
(dp714
ssg106
(dp715
g324
(dp716
sg499
(dp717
sg620
(dp718
sg202
(dp719
sg515
(dp720
ssg108
(dp721
g34
g537
sS'f63b3e27b3cfb9906e2238f4137de344'
p722
(dp723
sS'5fa6338800742fc7a88abae6ae6a6c7c'
p724
(dp725
ssg110
(dp726
S'34ba42cebe3b27352e4b88ed88de12a9'
p727
(dp728
sS'e5c4a5520452e2f6e16a2bab15a8cadf'
p729
g596
sS'82c0a5c5805850470820faa4707c925c'
p730
(dp731
ssg112
(dp732
g322
(dp733
sS'b4dc4196c7baa86a4c1f1cb3cb166752'
p734
g610
sS'e3ac71d8f3d474fd984ecbf817d0a6d5'
p735
(dp736
ssg114
(dp737
S'aaa0af98e621204e063e30414732caf8'
p738
g655
sg525
(dp739
ssg116
(dp740
g82
g665
sg208
(dp741
sS'70b4c4f8086ee34753ef3355591875d7'
p742
(dp743
ssg118
(dp744
S'693cbb0f0b79c46fd3d54b8e6d22dc15'
p745
g676
sg368
(dp746
sg116
g743
ssg120
(dp747
g458
(dp748
sS'4e095ee39ece381ec33c73b7b7c7da79'
p749
g553
ssg122
(dp750
S'828b2f35e5a3e6e9a55245887cd85f34'
p751
(dp752
sS'48f87a9d59bc6ba54336fabb54b383b7'
p753
(dp754
sS'7f568cba75dd3f290e4526cd9adb573d'
p755
(dp756
sg178
(dp757
ssg124
(dp758
g114
g739
sg563
(dp759
sS'789e87fc71c2265522a31e4ad87797af'
p760
g526
sg424
(dp761
ssg126
(dp762
S'5e31449adfcbadc53e2a35eac4a05f2b'
p763
(dp764
sg364
(dp765
sS'a3d9211c32105e568b346ce68e3b2be0'
p766
(dp767
ssg128
(dp768
g560
g524
sg58
g602
ssg130
(dp769
g694
g533
sS'cdbaca22cb0b7e9c3982011cb731ee5d'
p770
(dp771
sg228
(dp772
ssg132
(dp773
S'1eaa5270c9141fd8e7758e467779872b'
p774
(dp775
sS'1f996002f9634cf444323e5471f5fea1'
p776
(dp777
sg270
(dp778
sg766
(dp779
ssg134
(dp780
S'fb763c6a3296f49fb9a622448622e622'
p781
(dp782
sg84
g670
ssg136
(dp783
g763
(dp784
sS'a2dcb74bd4ae9f376ec08aa58a3e124b'
p785
(dp786
ssg138
(dp787
g238
(dp788
sg292
(dp789
sS'0cb6df93be4a3534c40fa7ba3acd18e4'
p790
(dp791
ssg140
(dp792
g499
(dp793
sg300
(dp794
sg622
(dp795
ssg142
(dp796
S'aba2e6d6af9fc16b147d91d5740f4ae7'
p797
(dp798
sS'e559c3ba1db9a6f8ea5a21c03ce9b8c7'
p799
(dp800
ssg144
(dp801
g190
(dp802
sg544
(dp803
ssg146
(dp804
g200
(dp805
sS'2be094cc5f5feb78fc9369b04cf12faa'
p806
(dp807
sS'70fc2eef6f3b5065fd547c9f62f0ced7'
p808
(dp809
ssg148
(dp810
g254
(dp811
sS'090d6ca189858c61f378e65367394253'
p812
(dp813
sS'b1cce5fa7a0599987b7ca5379218229a'
p814
(dp815
ssg150
(dp816
S'a619b6dacee6dc1dbf17b0c08db819e4'
p817
(dp818
sS'4f0b35f5e0acda5be10ed9fa69f60815'
p819
(dp820
sS'2b7ca041e2b5c185d98691402ba92807'
p821
(dp822
sS'4f0c4ff85a9198711b648d0ddf3d92d2'
p823
(dp824
ssg152
(dp825
g170
(dp826
sS'6cab72da9f7579cd3fcc4e17c68a49d7'
p827
g600
ssg154
(dp828
g54
g591
sg605
(dp829
sg316
(dp830
ssg156
(dp831
g52
g587
sg280
(dp832
sS'f87193704e04c7e127fa97935ad2af5e'
p833
(dp834
ssg158
(dp835
S'16244d048d2d5ca04cdb877583b55528'
p836
(dp837
sS'de18f3628711f42b1e68aeae328d0579'
p838
(dp839
ssg160
(dp840
g481
(dp841
sS'cf41fb71474dad223a21a13cd090db6a'
p842
g824
sS'8a969d4a019059d41709b61d6f352cc6'
p843
(dp844
sS'eedec3e6d6c1eb09eaf37957b018d87b'
p845
(dp846
ssg162
(dp847
S'48209f4979dfc9e2c4c78ce9b3ab21b6'
p848
(dp849
sg234
(dp850
sg308
(dp851
ssg164
(dp852
S'0e7ceed39f9148b2d3e3198a76f1504e'
p853
(dp854
sS'9aea46db2d359322f51ad5f8e879d3a3'
p855
(dp856
sS'e8d62a9b277a5bfa8901527a5511ccb8'
p857
g752
ssg166
(dp858
g92
g690
sg264
(dp859
sg569
(dp860
ssg168
(dp861
S'eebc1caafaf0e29fb041d6405344848e'
p862
(dp863
sS'21677bd025ad95a48a2081d4ea362fab'
p864
(dp865
ssg170
(dp866
S'1d0ab418708adea5415d541214cd9a16'
p867
g826
sg180
(dp868
sg30
g529
sS'f87193704e04c7e127fa97935ad2af5e'
p869
(dp870
ssg172
(dp871
g314
(dp872
sg150
g822
sg845
(dp873
ssg174
(dp874
S'008d17117520cf02d60ed16ffdb97c49'
p875
g501
sg26
g516
sS'9c2a01404da31c552a5d65c83b94adaa'
p876
g720
ssg176
(dp877
g352
(dp878
sS'2d13539f0d87a9ca2c7687b907ee90f0'
p879
(dp880
sS'ec54c132a0142ec3a604bfbd0d303e0f'
p881
(dp882
ssg178
(dp883
S'e8d62a9b277a5bfa8901527a5511ccb8'
p884
g757
sS'0dad3cfa20daf9f51a825601ef1c9749'
p885
g577
ssg180
(dp886
g555
(dp887
sg528
g868
ssg182
(dp888
S'0d7d788a866dff957d9b861687e6176d'
p889
(dp890
sS'1bdd18500b4a9b1dd702ea0086e50ba2'
p891
(dp892
sg184
(dp893
ssg184
(dp894
S'6c38ec35aec323909af2b4300cb59962'
p895
g893
ssg186
(dp896
g855
(dp897
sS'e7cacd8a7d9c14fe81872d218bbd9b62'
p898
(dp899
ssg188
(dp900
g60
g606
sg154
g829
sg296
(dp901
sS'bbd8d3745c8fddc0c5454c619f76282c'
p902
(dp903
ssg190
(dp904
S'b1062ab45cde7dfd003cd594578ca5ff'
p905
g802
sg198
(dp906
sS'0413fe6b7528eeda38802b1c6ad241d2'
p907
g541
ssg192
(dp908
S'0239a3f0e35168e814964324b69cc10d'
p909
g486
sS'0ec28fa733c40f660640661be7521d2c'
p910
g627
ssg194
(dp911
S'beda67041211fbfa34018e09188af399'
p912
g666
sg32
g532
sg418
(dp913
ssg196
(dp914
g312
(dp915
sS'779a0eb5d0aa3ad08d80cb8712236fb6'
p916
g684
sg650
g543
ssg198
(dp917
g540
g906
sg240
(dp918
sg380
(dp919
ssg200
(dp920
S'0cb6df93be4a3534c40fa7ba3acd18e4'
p921
(dp922
sS'f5456e6175a6ffca3269ec7ccaf02c5e'
p923
g805
sg414
(dp924
ssg202
(dp925
S'a9b53140bcad66d853f2efc257753c17'
p926
g623
sS'9c2a01404da31c552a5d65c83b94adaa'
p927
g719
sS'97d4f5bdcd8a6292a302b05485ae3cb3'
p928
g795
ssg204
(dp929
S'a854270bedb7f0971849c92d795a2af4'
p930
(dp931
sg24
g512
sg438
(dp932
ssg206
(dp933
S'4f0b35f5e0acda5be10ed9fa69f60815'
p934
(dp935
sS'4f0c4ff85a9198711b648d0ddf3d92d2'
p936
g844
sS'8e2fdfaa08565dee2d1cb1d84dd7c0ab'
p937
(dp938
ssg208
(dp939
g398
(dp940
sg226
(dp941
sg448
(dp942
sg664
g741
ssg210
(dp943
g144
g803
sg916
g685
sg416
(dp944
sg36
g545
ssg212
(dp945
g727
(dp946
sg176
g882
sg430
(dp947
ssg214
(dp948
g634
(dp949
ssg216
(dp950
g751
g854
sS'c22fce98bb2d1863e184602cec16cf71'
p951
(dp952
sg574
(dp953
ssg218
(dp954
S'7a99f8bf5b9a1eb9d325b0e620c1d455'
p955
g863
sS'551ab560b84842e1a1fa5611b3f5c7cf'
p956
(dp957
sS'2b3814e748d1e6c15991cbe31dc7a1d8'
p958
(dp959
ssg220
(dp960
S'008d17117520cf02d60ed16ffdb97c49'
p961
g500
sg106
g717
sg691
(dp962
sg140
g793
ssg222
(dp963
g727
(dp964
sS'93c856e67645aa34b5f8c4daa8a9f931'
p965
g880
ssg224
(dp966
S'678e014a3d76f5f5b83fa694967b9cda'
p967
g899
sg370
(dp968
sS'954df4b902e299eb252c1cb9319cc5d9'
p969
g668
ssg226
(dp970
g410
(dp971
sS'cdb99aed2cbd6f8cd3f6e26d0297581f'
p972
g941
ssg228
(dp973
S'75b21d90bb331f6c8e04305fba1b9f8a'
p974
g631
sS'f55bb71baae2d60758519f16406f86fa'
p975
g772
ssg230
(dp976
S'5a7d895bc5c57e1c8e985f228c0e9fa9'
p977
(dp978
sS'e5c4a5520452e2f6e16a2bab15a8cadf'
p979
g598
sS'6f6ffc4718c847fbf9e11dc455a73353'
p980
(dp981
sg302
(dp982
ssg232
(dp983
S'9e0691d2c8b660eb0f00df477dd4a986'
p984
(dp985
sg62
g614
sS'1a25f4fe7a35d8c4e179ad6aef3efff5'
p986
g815
sS'e3ac71d8f3d474fd984ecbf817d0a6d5'
p987
(dp988
ssg234
(dp989
S'0faa4f29ed4d635f6ab459d232a636c4'
p990
(dp991
sS'aba2e6d6af9fc16b147d91d5740f4ae7'
p992
(dp993
sS'926f0d2dc38a3ba23cb03f8532f0f7f9'
p994
g850
ssg236
(dp995
g366
(dp996
sg958
(dp997
ssg238
(dp998
g358
(dp999
sS'bb80b3a9788b0d4c2e7b270da2efba7f'
p1000
g788
ssg240
(dp1001
S'f58e8f08d16a09ce573f6e20e0afbc20'
p1002
g918
ssg242
(dp1003
g396
(dp1004
sS'7f649d7fc3a81c80b8cbcf2e8e65c434'
p1005
(dp1006
sg216
g952
ssg244
(dp1007
S'b3e3c6ff55dd9ffa9f7e87022307e967'
p1008
(dp1009
sS'0239a3f0e35168e814964324b69cc10d'
p1010
g489
ssg246
(dp1011
g706
(dp1012
ssg248
(dp1013
g625
(dp1014
sg134
g782
sg306
(dp1015
ssg250
(dp1016
g11
g479
sg812
(dp1017
sg72
g639
ssg252
(dp1018
S'66fd3f88352ae29da12a810a4a7e64a9'
p1019
(dp1020
sS'76e4701bfed8891c89462984731acc66'
p1021
(dp1022
sS'dc4bad880072c93ddbf759d8290da984'
p1023
g764
sg136
g784
ssg254
(dp1024
S'b4dc4196c7baa86a4c1f1cb3cb166752'
p1025
g612
sg986
g811
ssg256
(dp1026
g648
(dp1027
sg916
g683
sS'3bd0f89664f7ae67f38990559fa7a3bc'
p1028
(dp1029
sS'c9b68a522a761a122ee06aa5ba1cb022'
p1030
g579
ssg258
(dp1031
g1010
g487
ssg260
(dp1032
g160
g846
sS'c98d4f5febd05e163c9ea22597140449'
p1033
g513
sg452
(dp1034
sg172
g873
sS'8e2fdfaa08565dee2d1cb1d84dd7c0ab'
p1035
(dp1036
ssg262
(dp1037
S'98fb3069921afa344333d77ae3e915a8'
p1038
(dp1039
sS'0faa4f29ed4d635f6ab459d232a636c4'
p1040
(dp1041
sS'bc6b60e8dd779d99ac7da2a98feadd8a'
p1042
g981
sS'aba2e6d6af9fc16b147d91d5740f4ae7'
p1043
(dp1044
ssg264
(dp1045
g689
g859
sS'ebbadc83ee382eea2724c317aa874707'
p1046
g568
sg432
(dp1047
ssg266
(dp1048
S'5c395ff4f2b561b19af4677208cfed19'
p1049
(dp1050
sg1025
g608
sg320
(dp1051
ssg268
(dp1052
g440
(dp1053
sg262
g1039
sS'1d68a211c94a478ef1c0dd3ae370432a'
p1054
(dp1055
ssg270
(dp1056
S'34273c39043441bc2c441ab70885f7fb'
p1057
(dp1058
sS'2dbd2302869f1b9ba453793542c4907e'
p1059
g704
sS'07326591c0814ad457933af346031e45'
p1060
g778
ssg272
(dp1061
g984
(dp1062
sg148
g813
sg250
g1017
ssg274
(dp1063
S'a2dcb74bd4ae9f376ec08aa58a3e124b'
p1064
(dp1065
sS'2be094cc5f5feb78fc9369b04cf12faa'
p1066
(dp1067
sg434
(dp1068
ssg276
(dp1069
g503
g644
sS'e49721cda591f76302cb386c7022c643'
p1070
g709
sS'7ce8d48b292f21dce904db115c2c3999'
p1071
(dp1072
ssg278
(dp1073
g558
g616
sg466
(dp1074
sg28
g522
ssg280
(dp1075
g374
(dp1076
sg586
g832
ssg282
(dp1077
g286
(dp1078
sg819
(dp1079
ssg284
(dp1080
g1064
(dp1081
ssg286
(dp1082
g412
(dp1083
sS'cf41fb71474dad223a21a13cd090db6a'
p1084
g818
sS'ecd3d6c569869bfefc5e7668eadd984d'
p1085
g1078
ssg288
(dp1086
S'c224768b80f3dc09a1a71a634c442ef8'
p1087
g561
sS'aaa0af98e621204e063e30414732caf8'
p1088
g658
sg450
(dp1089
ssg290
(dp1090
S'0621a2ee6694731619756ff3cc288c62'
p1091
(dp1092
sg394
(dp1093
sg408
(dp1094
ssg292
(dp1095
g86
g675
sS'2894ac2517892ad378d2e2178bb0ddf2'
p1096
(dp1097
sg1000
g789
ssg294
(dp1098
S'ee928b66b5bf1fe7f60d1968e91c9075'
p1099
(dp1100
sS'cf41fb71474dad223a21a13cd090db6a'
p1101
g820
sg282
g1079
sg843
g935
ssg296
(dp1102
g342
(dp1103
sg605
g901
sS'2136618eab5fd2cab23f0c00f3d2a384'
p1104
(dp1105
sg749
g552
ssg298
(dp1106
g166
g860
sS'2efba0ba519c96275c927b957733dfc7'
p1107
(dp1108
sg46
g570
ssg300
(dp1109
g244
g1009
sS'914699328357952344a2a3ac856d5fa4'
p1110
(dp1111
sS'97d4f5bdcd8a6292a302b05485ae3cb3'
p1112
g794
ssg302
(dp1113
S'0faa4f29ed4d635f6ab459d232a636c4'
p1114
(dp1115
sg1042
g982
ssg304
(dp1116
g90
g687
sg1030
g580
ssg306
(dp1117
g1008
g1111
sg15
g491
sS'0ec28fa733c40f660640661be7521d2c'
p1118
g628
sg781
g1015
ssg308
(dp1119
g268
g1055
sS'e559c3ba1db9a6f8ea5a21c03ce9b8c7'
p1120
(dp1121
sg338
(dp1122
sg994
g851
ssg310
(dp1123
g272
g1062
sg232
g985
sS'1f9dd70b4583beccc4f83df56759b6bf'
p1124
(dp1125
ssg312
(dp1126
S'14236fb3f7fd99ea729423f6758863b6'
p1127
g1027
sS'3fe668a455d10d8b89ebf267f0022459'
p1128
g915
sS'089705f9daaa052a79750ecff7f3daac'
p1129
g649
ssg314
(dp1130
g294
g1100
sg821
g872
sg406
(dp1131
sS'8e2fdfaa08565dee2d1cb1d84dd7c0ab'
p1132
(dp1133
ssg316
(dp1134
g590
g830
sS'60f8aab6ad7ff35cc94c05fe46fc9db6'
p1135
g1105
ssg318
(dp1136
S'9aea46db2d359322f51ad5f8e879d3a3'
p1137
(dp1138
sg122
g756
sS'8057bc90ec595261daa8e861fe360f3d'
p1139
(dp1140
ssg320
(dp1141
S'c6afc148f72dd84bc66238bb78864fdd'
p1142
g1051
sg691
(dp1143
ssg322
(dp1144
g1142
g1050
sg20
g498
sg609
g733
sg384
(dp1145
ssg324
(dp1146
g927
g716
ssg326
(dp1147
g706
(dp1148
sS'e8dca1d16633ca9d9446ab2c70d555f3'
p1149
g509
ssg328
(dp1150
g318
g1140
sg969
g672
ssg330
(dp1151
g1021
(dp1152
sg344
(dp1153
sS'f5456e6175a6ffca3269ec7ccaf02c5e'
p1154
g807
sS'648bc66f1b7966de0115db3c3d32446e'
p1155
g1067
ssg332
(dp1156
g572
(dp1157
sg242
g1006
sg362
(dp1158
ssg334
(dp1159
g252
g1020
sg348
(dp1160
sg766
(dp1161
ssg336
(dp1162
g930
(dp1163
sS'7da928ccd02699ee350444c3419dbaf1'
p1164
(dp1165
sS'8b0ec8a771e0f62f836f38b2191e3813'
p1166
(dp1167
sg937
(dp1168
ssg338
(dp1169
S'6f6ffc4718c847fbf9e11dc455a73353'
p1170
g1044
sS'2bcd8fe2e7d52ac955fcfa9a360b481b'
p1171
g993
sg1054
g1122
sS'1c698e0eabd8610c24d22fc7e6473eda'
p1172
g798
ssg340
(dp1173
S'7da928ccd02699ee350444c3419dbaf1'
p1174
(dp1175
sS'4f0c4ff85a9198711b648d0ddf3d92d2'
p1176
g841
sg13
g482
ssg342
(dp1177
S'60f8aab6ad7ff35cc94c05fe46fc9db6'
p1178
g1103
sg298
g1108
ssg344
(dp1179
S'6f21270daeffec0105ee96d80bdb5a4f'
p1180
g922
sg806
g1153
sg138
g791
ssg346
(dp1181
g112
g736
sg613
g988
sg1124
(dp1182
ssg348
(dp1183
g1019
g1160
sg444
(dp1184
sg146
g809
ssg350
(dp1185
g422
(dp1186
sg528
g870
sg156
g834
sg827
g603
ssg352
(dp1187
g965
g878
sg48
g573
sg332
g1157
ssg354
(dp1188
g956
(dp1189
ssg356
(dp1190
g164
g856
sg186
g897
sg755
g1138
sg969
g671
ssg358
(dp1191
S'8fcae94b2bd503807c10032847d38d22'
p1192
g999
sS'524d8bedac8854832aea4f2122ab628e'
p1193
g1097
sg392
(dp1194
ssg360
(dp1195
g503
g641
sg100
g707
sg326
g1148
sg246
g1012
ssg362
(dp1196
S'0dad3cfa20daf9f51a825601ef1c9749'
p1197
g575
sg1005
g1158
sg884
g754
sS'0e7ceed39f9148b2d3e3198a76f1504e'
p1198
g953
ssg364
(dp1199
S'dc4bad880072c93ddbf759d8290da984'
p1200
g765
sg446
(dp1201
sS'07326591c0814ad457933af346031e45'
p1202
g775
ssg366
(dp1203
S'eebc1caafaf0e29fb041d6405344848e'
p1204
g957
sg354
g1189
sS'f331e9bf969acaddf8a5220919284e54'
p1205
g996
ssg368
(dp1206
g742
g746
ssg370
(dp1207
g188
g903
sS'e7cacd8a7d9c14fe81872d218bbd9b62'
p1208
g968
ssg372
(dp1209
g593
(dp1210
sg110
g728
sg222
g964
sg212
g946
ssg374
(dp1211
g336
g1163
sg204
g931
sS'451f1297b3124cb2e485bc12623d1b37'
p1212
g1076
ssg376
(dp1213
g404
(dp1214
sg426
(dp1215
sg98
g702
sg1060
g777
ssg378
(dp1216
S'3bfd3e585aa35aa4de12ac81fdfd0ecb'
p1217
g699
sg895
g892
ssg380
(dp1218
g104
g714
sg1002
g919
sS'0413fe6b7528eeda38802b1c6ad241d2'
p1219
g547
ssg382
(dp1220
S'41093aac70199b616a6739dec92ffd4d'
p1221
g477
sg402
(dp1222
sS'76e8134cb25a64d8f98c6c43c6161da9'
p1223
g638
ssg384
(dp1224
g497
g1145
sS'5cb465a9429b30fd02108b893e35af81'
p1225
g1143
sS'9e70ee2a4550e1d199029c287af239b5'
p1226
g692
sg220
g962
ssg386
(dp1227
g66
g621
sS'3e93f7dbe875b3f08f6a848d2244a60e'
p1228
g517
sS'9c2a01404da31c552a5d65c83b94adaa'
p1229
g718
ssg388
(dp1230
S'5f6be2e589c7ab892e89d3f3a8131019'
p1231
g678
sg442
(dp1232
sg162
g849
ssg390
(dp1233
g334
g1161
sg126
g767
sg426
(dp1234
sg132
g779
ssg392
(dp1235
S'551956ae949f22fc4c8d994251419766'
p1236
g839
sg1096
g1194
ssg394
(dp1237
g536
g723
sS'016a43132f00de57b96def3cba1f1390'
p1238
g1093
ssg396
(dp1239
g951
g1004
sg68
g626
sg248
g1014
ssg398
(dp1240
g493
(dp1241
sS'beda67041211fbfa34018e09188af399'
p1242
g663
sg972
g940
ssg400
(dp1243
g1021
(dp1244
sg284
g1081
sS'fbe679a915ca31497681cc6486781ef9'
p1245
g786
sg274
g1065
ssg402
(dp1246
g637
g1222
sg158
g837
ssg404
(dp1247
g701
g1214
ssg406
(dp1248
S'082185bc8f7848f028b46afe5c16aad8'
p1249
g1167
sg1099
g1131
ssg408
(dp1250
g108
g725
sg1238
g1094
ssg410
(dp1251
g17
g494
sS'68a2d9637a203a1eff38ec8fd551b471'
p1252
g1241
sS'6cfe7dc129c92df39328ae10ac30a426'
p1253
g971
ssg412
(dp1254
g456
(dp1255
sg817
g1083
ssg414
(dp1256
g1180
g924
ssg416
(dp1257
S'14236fb3f7fd99ea729423f6758863b6'
p1258
g1029
sg713
g652
sg544
g944
ssg418
(dp1259
g531
g913
sg88
g679
sg975
g771
sg70
g633
ssg420
(dp1260
S'b88cb63518bfcad99c1d6db36b174a27'
p1261
g565
ssg422
(dp1262
S'367395255e0b532de4d71f91ada643a7'
p1263
g585
sg40
g556
sS'a7f32da45356d7a8ff9ccb6e4795968b'
p1264
g887
sg833
g1186
ssg424
(dp1265
S'30db44df27f7101f52e57b1b6217e821'
p1266
g1072
sg525
g761
ssg426
(dp1267
g376
g1215
sg390
g1234
ssg428
(dp1268
S'e8dca1d16633ca9d9446ab2c70d555f3'
p1269
g505
ssg430
(dp1270
S'e2818125a6be1ddea64c0b5ca86af3d2'
p1271
g731
sg881
g947
ssg432
(dp1272
g310
g1125
sg567
g1047
sg346
g1182
ssg434
(dp1273
g1170
g1041
sg1155
g1068
sS'2bcd8fe2e7d52ac955fcfa9a360b481b'
p1274
g991
sS'fdeb5709f93ec9eee565933e8374bfeb'
p1275
g1115
ssg436
(dp1276
g1217
g696
sg182
g890
ssg438
(dp1277
S'082185bc8f7848f028b46afe5c16aad8'
p1278
g1168
sg1099
g1133
sg511
g932
sg206
g938
sg845
g1036
ssg440
(dp1279
g454
(dp1280
sg1038
g1053
sg230
g978
ssg442
(dp1281
g848
g1232
sg1054
g1121
sg142
g800
ssg444
(dp1282
S'5e31449adfcbadc53e2a35eac4a05f2b'
p1283
g1022
sg400
g1244
sg330
g1152
sg808
g1184
ssg446
(dp1284
g774
g1201
sS'f816d650c4bf4936a126f34eeb3eb7a2'
p1285
g1058
sg96
g698
ssg448
(dp1286
g972
g942
ssg450
(dp1287
g218
g959
sg864
(dp1288
sg657
g1089
sg236
g997
ssg452
(dp1289
g1249
g1165
sg340
g1175
sg845
g1034
ssg454
(dp1290
g977
g1280
sg56
g594
sg372
g1210
ssg456
(dp1291
S'ec2defb514b84430895644a9c29f5c23'
p1292
g1255
sg290
g1092
ssg458
(dp1293
S'1bf4d09a2f466f069edb4b2821eeb3ee'
p1294
g748
ssg460
(dp1295
g168
g865
sg738
g656
sS'2b3814e748d1e6c15991cbe31dc7a1d8'
p1296
g1288
ssg462
(dp1297
g1269
g507
sg642
(dp1298
ssg464
(dp1299
g74
g643
sg462
g1298
sS'37bdda72b9a3fe4ee6c11a58880d022b'
p1300
g483
ssg466
(dp1301
g521
g1074
sg44
g564
sg124
g759
ssg468
(dp1302
S'75b21d90bb331f6c8e04305fba1b9f8a'
p1303
g635
sg1231
g680
sg214
g949
sssS'adj'
p1304
g475
sbsS'save_tmp'
p1305
I01
sS'use_cloud'
p1306
I01
sS'state'
p1307
(isrc.logic.state
State
p1308
(dp1309
S'map'
p1310
(isrc.logic.map
Map
p1311
(dp1312
S'tiles'
p1313
(lp1314
(lp1315
(isrc.logic.tile
Tile
p1316
(dp1317
g1310
g1311
sS'color'
p1318
(I20
I20
I20
tp1319
sS'surface'
p1320
NsS'v'
p1321
I0
sS'y'
p1322
I0
sS'x'
p1323
I0
sS'se'
p1324
Nsba(isrc.logic.tile
Tile
p1325
(dp1326
g1310
g1311
sg1318
(I50
I50
I50
tp1327
sg1320
Nsg1321
I1
sg1322
I1
sg1323
I0
sg1324
Nsba(isrc.logic.tile
Tile
p1328
(dp1329
g1310
g1311
sg1318
g1319
sg1320
Nsg1321
I0
sg1322
I2
sg1323
I0
sg1324
(isrc.logic.snake
SnakeElement
p1330
(dp1331
g1322
I2
sg1323
I0
sS'snake'
p1332
(isrc.logic.snake
Snake
p1333
(dp1334
g1318
(I0
I255
I0
tp1335
sg1310
g1311
sS'elements'
p1336
(lp1337
g1330
a(isrc.logic.snake
SnakeElement
p1338
(dp1339
g1322
I2
sg1323
I1
sg1332
g1333
sS'order'
p1340
Nsba(isrc.logic.snake
SnakeElement
p1341
(dp1342
g1322
I1
sg1323
I1
sg1332
g1333
sg1340
Nsbasg1320
Nsg1321
VG
p1343
sbsg1340
Nsbsba(isrc.logic.tile
Tile
p1344
(dp1345
g1310
g1311
sg1318
g1327
sg1320
Nsg1321
I1
sg1322
I3
sg1323
I0
sg1324
Nsbaa(lp1346
(isrc.logic.tile
Tile
p1347
(dp1348
g1310
g1311
sg1318
g1319
sg1320
Nsg1321
I0
sg1322
I0
sg1323
I1
sg1324
Nsba(isrc.logic.tile
Tile
p1349
(dp1350
g1310
g1311
sg1318
g1319
sg1320
Nsg1321
I0
sg1322
I1
sg1323
I1
sg1324
g1341
sba(isrc.logic.tile
Tile
p1351
(dp1352
g1310
g1311
sg1318
g1319
sg1320
Nsg1321
I0
sg1322
I2
sg1323
I1
sg1324
g1338
sba(isrc.logic.tile
Tile
p1353
(dp1354
g1310
g1311
sg1318
g1327
sg1320
Nsg1321
I1
sg1322
I3
sg1323
I1
sg1324
Nsbaa(lp1355
(isrc.logic.tile
Tile
p1356
(dp1357
g1310
g1311
sg1318
g1319
sg1320
Nsg1321
I0
sg1322
I0
sg1323
I2
sg1324
Nsba(isrc.logic.tile
Tile
p1358
(dp1359
g1310
g1311
sg1318
g1327
sg1320
Nsg1321
I1
sg1322
I1
sg1323
I2
sg1324
Nsba(isrc.logic.tile
Tile
p1360
(dp1361
g1310
g1311
sg1318
g1319
sg1320
Nsg1321
I0
sg1322
I2
sg1323
I2
sg1324
(isrc.logic.snake
SnakeElement
p1362
(dp1363
g1322
I2
sg1323
I2
sg1332
(isrc.logic.snake
Snake
p1364
(dp1365
g1318
(I0
I0
I255
tp1366
sg1310
g1311
sg1336
(lp1367
(isrc.logic.snake
SnakeElement
p1368
(dp1369
g1322
I3
sg1323
I2
sg1332
g1364
sg1340
Nsbag1362
a(isrc.logic.snake
SnakeElement
p1370
(dp1371
g1322
I2
sg1323
I3
sg1332
g1364
sg1340
Nsba(isrc.logic.snake
SnakeElement
p1372
(dp1373
g1322
I1
sg1323
I3
sg1332
g1364
sg1340
Nsbasg1320
Nsg1321
VB
p1374
sbsg1340
Nsbsba(isrc.logic.tile
Tile
p1375
(dp1376
g1310
g1311
sg1318
g1319
sg1320
Nsg1321
I0
sg1322
I3
sg1323
I2
sg1324
g1368
sbaa(lp1377
(isrc.logic.tile
Tile
p1378
(dp1379
g1310
g1311
sg1318
(I0
I102
I0
tp1380
sg1320
Nsg1321
Vg
p1381
sg1322
I0
sg1323
I3
sg1324
(isrc.logic.snake
SnakeElement
p1382
(dp1383
g1322
I0
sg1323
I3
sg1332
(isrc.logic.snake
Snake
p1384
(dp1385
g1318
(I255
I0
I0
tp1386
sg1310
g1311
sg1336
(lp1387
g1382
asg1320
Nsg1321
VR
p1388
sbsg1340
Nsbsba(isrc.logic.tile
Tile
p1389
(dp1390
g1310
g1311
sg1318
g1380
sg1320
Nsg1321
Vg
p1391
sg1322
I1
sg1323
I3
sg1324
g1372
sba(isrc.logic.tile
Tile
p1392
(dp1393
g1310
g1311
sg1318
g1380
sg1320
Nsg1321
Vg
p1394
sg1322
I2
sg1323
I3
sg1324
g1370
sba(isrc.logic.tile
Tile
p1395
(dp1396
g1310
g1311
sg1318
g1327
sg1320
Nsg1321
I1
sg1322
I3
sg1323
I3
sg1324
Nsbaasg1320
NsS'n'
p1397
I4
sS'size_px'
p1398
I240
sS'y_offset'
p1399
I0
sS'x_offset'
p1400
I0
sbsS'move'
p1401
NsS'snakes'
p1402
(lp1403
g1384
ag1364
ag1333
asS'parent_state'
p1404
(isrc.logic.state
State
p1405
(dp1406
g1310
(isrc.logic.map
Map
p1407
(dp1408
g1313
(lp1409
(lp1410
(isrc.logic.tile
Tile
p1411
(dp1412
g1310
g1407
sg1318
g1319
sg1320
Nsg1321
I0
sg1322
I0
sg1323
I0
sg1324
Nsba(isrc.logic.tile
Tile
p1413
(dp1414
g1310
g1407
sg1318
g1327
sg1320
Nsg1321
I1
sg1322
I1
sg1323
I0
sg1324
Nsba(isrc.logic.tile
Tile
p1415
(dp1416
g1310
g1407
sg1318
g1319
sg1320
Nsg1321
I0
sg1322
I2
sg1323
I0
sg1324
(isrc.logic.snake
SnakeElement
p1417
(dp1418
g1322
I2
sg1323
I0
sg1332
(isrc.logic.snake
Snake
p1419
(dp1420
g1318
g1335
sg1310
g1407
sg1336
(lp1421
g1417
a(isrc.logic.snake
SnakeElement
p1422
(dp1423
g1322
I2
sg1323
I1
sg1332
g1419
sg1340
Nsba(isrc.logic.snake
SnakeElement
p1424
(dp1425
g1322
I1
sg1323
I1
sg1332
g1419
sg1340
Nsbasg1320
Nsg1321
VG
p1426
sbsg1340
Nsbsba(isrc.logic.tile
Tile
p1427
(dp1428
g1310
g1407
sg1318
g1327
sg1320
Nsg1321
I1
sg1322
I3
sg1323
I0
sg1324
Nsbaa(lp1429
(isrc.logic.tile
Tile
p1430
(dp1431
g1310
g1407
sg1318
g1319
sg1320
Nsg1321
I0
sg1322
I0
sg1323
I1
sg1324
Nsba(isrc.logic.tile
Tile
p1432
(dp1433
g1310
g1407
sg1318
g1319
sg1320
Nsg1321
I0
sg1322
I1
sg1323
I1
sg1324
g1424
sba(isrc.logic.tile
Tile
p1434
(dp1435
g1310
g1407
sg1318
g1319
sg1320
Nsg1321
I0
sg1322
I2
sg1323
I1
sg1324
g1422
sba(isrc.logic.tile
Tile
p1436
(dp1437
g1310
g1407
sg1318
g1327
sg1320
Nsg1321
I1
sg1322
I3
sg1323
I1
sg1324
Nsbaa(lp1438
(isrc.logic.tile
Tile
p1439
(dp1440
g1310
g1407
sg1318
g1319
sg1320
Nsg1321
I0
sg1322
I0
sg1323
I2
sg1324
Nsba(isrc.logic.tile
Tile
p1441
(dp1442
g1310
g1407
sg1318
g1327
sg1320
Nsg1321
I1
sg1322
I1
sg1323
I2
sg1324
Nsba(isrc.logic.tile
Tile
p1443
(dp1444
g1310
g1407
sg1318
g1319
sg1320
Nsg1321
I0
sg1322
I2
sg1323
I2
sg1324
(isrc.logic.snake
SnakeElement
p1445
(dp1446
g1322
I2
sg1323
I2
sg1332
(isrc.logic.snake
Snake
p1447
(dp1448
g1318
g1366
sg1310
g1407
sg1336
(lp1449
(isrc.logic.snake
SnakeElement
p1450
(dp1451
g1322
I3
sg1323
I2
sg1332
g1447
sg1340
Nsbag1445
a(isrc.logic.snake
SnakeElement
p1452
(dp1453
g1322
I2
sg1323
I3
sg1332
g1447
sg1340
Nsba(isrc.logic.snake
SnakeElement
p1454
(dp1455
g1322
I1
sg1323
I3
sg1332
g1447
sg1340
Nsbasg1320
Nsg1321
VB
p1456
sbsg1340
Nsbsba(isrc.logic.tile
Tile
p1457
(dp1458
g1310
g1407
sg1318
g1319
sg1320
Nsg1321
I0
sg1322
I3
sg1323
I2
sg1324
g1450
sbaa(lp1459
(isrc.logic.tile
Tile
p1460
(dp1461
g1310
g1407
sg1318
g1380
sg1320
Nsg1321
Vg
p1462
sg1322
I0
sg1323
I3
sg1324
(isrc.logic.snake
SnakeElement
p1463
(dp1464
g1322
I0
sg1323
I3
sg1332
(isrc.logic.snake
Snake
p1465
(dp1466
g1318
g1386
sg1310
g1407
sg1336
(lp1467
g1463
asg1320
Nsg1321
VR
p1468
sbsg1340
Nsbsba(isrc.logic.tile
Tile
p1469
(dp1470
g1310
g1407
sg1318
g1380
sg1320
Nsg1321
Vg
p1471
sg1322
I1
sg1323
I3
sg1324
g1454
sba(isrc.logic.tile
Tile
p1472
(dp1473
g1310
g1407
sg1318
g1380
sg1320
Nsg1321
Vg
p1474
sg1322
I2
sg1323
I3
sg1324
g1452
sba(isrc.logic.tile
Tile
p1475
(dp1476
g1310
g1407
sg1318
g1327
sg1320
Nsg1321
I1
sg1322
I3
sg1323
I3
sg1324
Nsbaasg1320
Nsg1397
I4
sg1398
I240
sg1399
I0
sg1400
I0
sbsg1401
Nsg1402
(lp1477
g1465
ag1447
ag1419
asg1404
NsbsbsS'debug_info'
p1478
NsS'MAX_RECURSION_DEPTH'
p1479
I10000
sS'l_shortest'
p1480
I12
sS'sols'
p1481
(lp1482
(lp1483
S'a8443a8a3f4e84eac9537319a106b6f3'
p1484
ag390
ag334
ag252
ag1021
ag330
ag344
ag138
ag292
ag86
ag118
ag116
ag82
aa(lp1485
g1484
ag390
ag334
ag252
ag1021
ag330
ag344
ag138
ag292
ag86
ag118
ag116
ag82
ag194
aa(lp1486
g1484
ag390
ag334
ag252
ag1021
ag330
ag344
ag138
ag292
ag86
ag118
ag116
ag208
ag398
aa(lp1487
g1484
ag390
ag334
ag252
ag1021
ag400
ag274
ag434
ag1274
ag994
ag848
ag1231
ag632
ag975
ag694
aa(lp1488
g1484
ag390
ag334
ag252
ag1021
ag330
ag344
ag138
ag292
ag86
ag118
ag116
ag208
ag398
ag493
aa(lp1489
g1484
ag390
ag334
ag252
ag1021
ag330
ag344
ag138
ag292
ag86
ag118
ag116
ag208
ag398
ag493
ag17
aa(lp1490
g1484
ag390
ag334
ag252
ag1021
ag330
ag344
ag138
ag292
ag86
ag118
ag116
ag208
ag398
ag493
ag17
ag102
aa(lp1491
g1484
ag390
ag334
ag252
ag1021
ag330
ag344
ag138
ag292
ag86
ag118
ag116
ag208
ag398
ag493
ag17
ag102
ag50
aa(lp1492
g1484
ag390
ag334
ag252
ag1021
ag330
ag344
ag138
ag292
ag86
ag118
ag116
ag208
ag398
ag493
ag17
ag102
ag50
ag304
aa(lp1493
g1484
ag390
ag334
ag252
ag1021
ag400
ag274
ag434
ag1170
ag1038
ag440
ag454
ag372
ag212
ag176
ag352
ag48
ag576
ag884
ag755
ag1137
ag186
ag898
ag370
aa(lp1494
g1484
ag390
ag334
ag252
ag1021
ag400
ag274
ag434
ag1170
ag1038
ag440
ag454
ag372
ag212
ag176
ag352
ag48
ag576
ag884
ag755
ag1137
ag186
ag898
ag370
ag188
aa(lp1495
g1484
ag390
ag334
ag252
ag1021
ag330
ag344
ag138
ag292
ag1096
ag392
ag1236
ag836
ag637
ag1221
ag478
ag812
ag984
ag1124
ag567
ag689
ag569
ag1107
ag1178
ag749
ag549
aa(lp1496
g1484
ag390
ag334
ag252
ag1021
ag330
ag344
ag138
ag292
ag1096
ag392
ag1236
ag836
ag637
ag1221
ag478
ag812
ag984
ag1124
ag567
ag689
ag569
ag1107
ag1178
ag1104
ag590
aa(lp1497
g1484
ag390
ag334
ag252
ag1021
ag400
ag274
ag434
ag1170
ag1038
ag440
ag454
ag372
ag212
ag176
ag352
ag332
ag242
ag396
ag68
ag490
ag1008
ag1112
ag622
ag926
ag64
ag42
ag560
ag128
ag58
ag350
ag156
ag280
ag374
ag336
aa(lp1498
g1484
ag390
ag334
ag252
ag1021
ag400
ag274
ag434
ag1170
ag1038
ag440
ag454
ag372
ag212
ag176
ag352
ag332
ag242
ag396
ag68
ag490
ag1008
ag1112
ag622
ag926
ag64
ag42
ag560
ag128
ag58
ag350
ag156
ag280
ag374
ag336
ag1166
aa(lp1499
g1484
ag390
ag334
ag252
ag1021
ag400
ag274
ag434
ag1170
ag1038
ag440
ag454
ag372
ag212
ag176
ag352
ag332
ag242
ag396
ag68
ag490
ag1008
ag1112
ag622
ag926
ag64
ag278
ag466
ag124
ag424
ag1266
ag503
ag642
ag1300
ag481
ag1174
aa(lp1500
g1484
ag390
ag334
ag252
ag1021
ag400
ag274
ag434
ag1170
ag1038
ag440
ag454
ag372
ag212
ag176
ag352
ag332
ag242
ag396
ag68
ag490
ag1008
ag1112
ag622
ag926
ag64
ag42
ag560
ag128
ag58
ag350
ag156
ag280
ag374
ag204
ag438
aa(lp1501
g1484
ag390
ag334
ag252
ag1021
ag400
ag274
ag434
ag1170
ag1038
ag440
ag454
ag372
ag212
ag176
ag352
ag332
ag242
ag396
ag68
ag490
ag1008
ag1112
ag622
ag926
ag64
ag42
ag560
ag128
ag58
ag350
ag156
ag280
ag374
ag336
ag1166
ag1099
aa(lp1502
g1484
ag390
ag334
ag252
ag1021
ag400
ag274
ag434
ag1170
ag1038
ag440
ag454
ag372
ag212
ag176
ag352
ag332
ag242
ag396
ag68
ag490
ag1008
ag1112
ag622
ag926
ag64
ag42
ag560
ag128
ag58
ag350
ag156
ag280
ag374
ag204
ag24
ag260
aa(lp1503
g1484
ag390
ag334
ag252
ag1021
ag400
ag274
ag434
ag1170
ag1038
ag440
ag454
ag372
ag212
ag176
ag352
ag332
ag242
ag396
ag68
ag490
ag1008
ag1112
ag622
ag926
ag64
ag42
ag560
ag128
ag58
ag350
ag156
ag280
ag374
ag336
ag1166
ag1099
ag821
aasS'use_temp'
p1504
I01
sS'quit_on_first'
p1505
I00
sb.