(isrc.solve.solver
Solver
p0
(dp1
S'gr'
p2
ccopy_reg
_reconstructor
p3
(cnetworkx.classes.graph
Graph
p4
c__builtin__
object
p5
Ntp6
Rp7
(dp8
S'node'
p9
(dp10
S'6560bf8289ceffed18c55e0f705b6765'
p11
(dp12
sS'72374cc5c81fca57a532326a03725152'
p13
(dp14
sS'a53b7ab5ee2b3d82dc4d4b68f0bae329'
p15
(dp16
sS'e22d78ff8cdf42442bdcec50e07507a9'
p17
(dp18
sS'fe6b849c8e9d43c58f2694b423c686fa'
p19
(dp20
sS'24fcb67df82e0af803e14b6cf2035710'
p21
(dp22
sS'435d2c2274c894a75a544cb5cce52cdc'
p23
(dp24
sS'cb34bc6472e502c596371e8aa6e97f5c'
p25
(dp26
S'complete'
p27
I01
ssS'06f88f3262e2e14ce87809cba7e59841'
p28
(dp29
sS'62a2a05389b533bf0ec1f361923d4661'
p30
(dp31
sS'9d8a205eff18c3910f21ddd1ff3755c7'
p32
(dp33
sS'f180bb8e168de0b1b8c9ec8e84f394a0'
p34
(dp35
g27
I01
ssS'7599b45f81161112665d76e0204d7cc1'
p36
(dp37
sS'8212f1e8d09f38907c10f198293b188a'
p38
(dp39
sS'97e029dae69cf80290402f1485e992c4'
p40
(dp41
sS'530b7c001b2c8440230c7a2040d68aeb'
p42
(dp43
g27
I01
ssS'26e4422eb983ae07d20395361e7bbfaf'
p44
(dp45
g27
I01
ssS'434cd625e00973030be310f6de46704c'
p46
(dp47
sS'08a9467cad6e88919b27188778bb7e13'
p48
(dp49
sS'cd66b943a9e072e5e2d14af251ecf458'
p50
(dp51
g27
I01
ssS'ef5da40fa5ae67c0f354cacdbeb17a34'
p52
(dp53
sS'c341603f48e9be5ff7351d01549b9086'
p54
(dp55
sS'3bea6d055bd50150a0b9e5dd2e8679c1'
p56
(dp57
sS'2429564e4f3e49fcad36d873e013a6a7'
p58
(dp59
sS'407fdb0f1e2d57ac27deb30dfcbc11f1'
p60
(dp61
sS'ee0be63015cf99e80945f84023dac0b4'
p62
(dp63
sS'e180d3ece85f78d315e27f53b0ab2d8b'
p64
(dp65
sS'b79f7ffd374e183ffdcb0dc70a492568'
p66
(dp67
sS'75a32b25135bf8b147657673a5bb0f2b'
p68
(dp69
sS'e4f2986f13b061aa904e0bc9496c0a8b'
p70
(dp71
sS'5e0c36a5c5eacdc23f3c2ad408d486c1'
p72
(dp73
sS'e860d0c83aec9d438ae3b29d62c9a288'
p74
(dp75
sS'200676f08fb0e311246f55b7d651b3d2'
p76
(dp77
sS'd36c7b8477dbf03eee7b9791093c1992'
p78
(dp79
sS'cecf0631fb948b7d346915c888ba621b'
p80
(dp81
sS'9fcb3c55f45b56b8e857ee3a73942c71'
p82
(dp83
g27
I01
ssS'bdc95af1c5aa213e58575691c9ce35aa'
p84
(dp85
sS'4b46281b80166353f9dc3e922e44ba06'
p86
(dp87
sS'42e7572f2fa078595248d4ca1b7d735b'
p88
(dp89
sS'ca42411d6a48cf6f99393d70c8dd8256'
p90
(dp91
sS'f781b08b43a3e8d981c55f45c21776bf'
p92
(dp93
sS'8a3464ae3cd56aec0ef444025e05214a'
p94
(dp95
ssS'graph'
p96
(dp97
S'finals'
p98
(lp99
g25
ag50
ag42
ag34
ag44
ag82
assS'edge'
p100
(dp101
g11
(dp102
g92
(dp103
sg58
(dp104
sS'42e7572f2fa078595248d4ca1b7d735b'
p105
(dp106
ssg13
(dp107
g70
(dp108
sS'9d8a205eff18c3910f21ddd1ff3755c7'
p109
(dp110
ssg15
(dp111
g62
(dp112
sg52
(dp113
ssg17
(dp114
g86
(dp115
sg62
(dp116
sS'e180d3ece85f78d315e27f53b0ab2d8b'
p117
(dp118
ssg19
(dp119
S'c341603f48e9be5ff7351d01549b9086'
p120
(dp121
ssg21
(dp122
g84
(dp123
sg74
(dp124
sS'b79f7ffd374e183ffdcb0dc70a492568'
p125
(dp126
ssg23
(dp127
S'e860d0c83aec9d438ae3b29d62c9a288'
p128
(dp129
sS'bdc95af1c5aa213e58575691c9ce35aa'
p130
(dp131
ssg25
(dp132
g50
(dp133
sS'5e0c36a5c5eacdc23f3c2ad408d486c1'
p134
(dp135
sg42
(dp136
ssg28
(dp137
S'4b46281b80166353f9dc3e922e44ba06'
p138
(dp139
sg94
(dp140
sg66
(dp141
ssg30
(dp142
S'f781b08b43a3e8d981c55f45c21776bf'
p143
(dp144
sS'2429564e4f3e49fcad36d873e013a6a7'
p145
(dp146
ssg32
(dp147
g78
(dp148
sg145
(dp149
sg13
g110
ssg34
(dp150
S'cd66b943a9e072e5e2d14af251ecf458'
p151
(dp152
sg44
(dp153
sS'530b7c001b2c8440230c7a2040d68aeb'
p154
(dp155
ssg36
(dp156
g80
(dp157
sS'434cd625e00973030be310f6de46704c'
p158
(dp159
ssg38
(dp160
g62
(dp161
sg64
(dp162
ssg40
(dp163
g158
(dp164
ssg42
(dp165
g90
(dp166
sS'cb34bc6472e502c596371e8aa6e97f5c'
p167
g136
sS'f180bb8e168de0b1b8c9ec8e84f394a0'
p168
g155
ssg44
(dp169
g48
(dp170
sg168
g153
ssg46
(dp171
g36
g159
sg40
g164
sS'bdc95af1c5aa213e58575691c9ce35aa'
p172
(dp173
ssg48
(dp174
S'26e4422eb983ae07d20395361e7bbfaf'
p175
g170
ssg50
(dp176
g167
g133
sg34
g152
ssg52
(dp177
S'a53b7ab5ee2b3d82dc4d4b68f0bae329'
p178
g113
ssg54
(dp179
S'e4f2986f13b061aa904e0bc9496c0a8b'
p180
(dp181
sg117
(dp182
sg19
g121
ssg56
(dp183
S'f781b08b43a3e8d981c55f45c21776bf'
p184
(dp185
sg82
(dp186
ssg58
(dp187
S'6560bf8289ceffed18c55e0f705b6765'
p188
g104
sg30
g146
sg32
g149
ssg60
(dp189
g128
(dp190
sg76
(dp191
ssg62
(dp192
g17
g116
sg15
g112
sg38
g161
ssg64
(dp193
S'e22d78ff8cdf42442bdcec50e07507a9'
p194
g118
sS'8212f1e8d09f38907c10f198293b188a'
p195
g162
sg54
g182
ssg66
(dp196
S'06f88f3262e2e14ce87809cba7e59841'
p197
g141
sg21
g126
ssg68
(dp198
g134
(dp199
ssg70
(dp200
S'72374cc5c81fca57a532326a03725152'
p201
g108
sS'c341603f48e9be5ff7351d01549b9086'
p202
g181
ssg72
(dp203
S'cecf0631fb948b7d346915c888ba621b'
p204
(dp205
sg25
g135
sg68
g199
ssg74
(dp206
g23
g129
sg60
g190
sS'24fcb67df82e0af803e14b6cf2035710'
p207
g124
ssg76
(dp208
S'407fdb0f1e2d57ac27deb30dfcbc11f1'
p209
g191
ssg78
(dp210
g109
g148
ssg80
(dp211
S'7599b45f81161112665d76e0204d7cc1'
p212
g157
sg72
g205
ssg82
(dp213
S'3bea6d055bd50150a0b9e5dd2e8679c1'
p214
g186
ssg84
(dp215
S'435d2c2274c894a75a544cb5cce52cdc'
p216
g131
sg46
g173
sg207
g123
ssg86
(dp217
S'e22d78ff8cdf42442bdcec50e07507a9'
p218
g115
sg28
g139
ssg88
(dp219
g11
g106
sS'8a3464ae3cd56aec0ef444025e05214a'
p220
(dp221
ssg90
(dp222
S'8a3464ae3cd56aec0ef444025e05214a'
p223
(dp224
sS'530b7c001b2c8440230c7a2040d68aeb'
p225
g166
ssg92
(dp226
g188
g103
sS'62a2a05389b533bf0ec1f361923d4661'
p227
g144
sg56
g185
ssg94
(dp228
S'ca42411d6a48cf6f99393d70c8dd8256'
p229
g224
sg88
g221
sg197
g140
sssS'adj'
p230
g101
sbsS'save_tmp'
p231
I01
sS'use_cloud'
p232
I01
sS'state'
p233
(isrc.logic.state
State
p234
(dp235
S'map'
p236
(isrc.logic.map
Map
p237
(dp238
S'tiles'
p239
(lp240
(lp241
(isrc.logic.tile
Tile
p242
(dp243
g236
g237
sS'color'
p244
(I20
I20
I20
tp245
sS'surface'
p246
NsS'v'
p247
I0
sS'y'
p248
I0
sS'x'
p249
I0
sS'se'
p250
(isrc.logic.snake
SnakeElement
p251
(dp252
g248
I0
sg249
I0
sS'snake'
p253
(isrc.logic.snake
Snake
p254
(dp255
g244
(I0
I0
I255
tp256
sg236
g237
sS'elements'
p257
(lp258
g251
a(isrc.logic.snake
SnakeElement
p259
(dp260
g248
I1
sg249
I0
sg253
g254
sS'order'
p261
Nsba(isrc.logic.snake
SnakeElement
p262
(dp263
g248
I2
sg249
I0
sg253
g254
sg261
Nsbasg246
Nsg247
VB
p264
sbsg261
Nsbsba(isrc.logic.tile
Tile
p265
(dp266
g236
g237
sg244
g245
sg246
Nsg247
I0
sg248
I1
sg249
I0
sg250
g259
sba(isrc.logic.tile
Tile
p267
(dp268
g236
g237
sg244
(I0
I102
I0
tp269
sg246
Nsg247
Vg
p270
sg248
I2
sg249
I0
sg250
g262
sbaa(lp271
(isrc.logic.tile
Tile
p272
(dp273
g236
g237
sg244
g245
sg246
Nsg247
I0
sg248
I0
sg249
I1
sg250
(isrc.logic.snake
SnakeElement
p274
(dp275
g248
I0
sg249
I1
sg253
(isrc.logic.snake
Snake
p276
(dp277
g244
(I0
I255
I0
tp278
sg236
g237
sg257
(lp279
g274
a(isrc.logic.snake
SnakeElement
p280
(dp281
g248
I0
sg249
I2
sg253
g276
sg261
Nsbasg246
Nsg247
VG
p282
sbsg261
Nsbsba(isrc.logic.tile
Tile
p283
(dp284
g236
g237
sg244
g245
sg246
Nsg247
I0
sg248
I1
sg249
I1
sg250
(isrc.logic.snake
SnakeElement
p285
(dp286
g248
I1
sg249
I1
sg253
(isrc.logic.snake
Snake
p287
(dp288
g244
(I255
I255
I0
tp289
sg236
g237
sg257
(lp290
g285
a(isrc.logic.snake
SnakeElement
p291
(dp292
g248
I1
sg249
I2
sg253
g287
sg261
Nsba(isrc.logic.snake
SnakeElement
p293
(dp294
g248
I2
sg249
I2
sg253
g287
sg261
Nsbasg246
Nsg247
VY
p295
sbsg261
Nsbsba(isrc.logic.tile
Tile
p296
(dp297
g236
g237
sg244
g269
sg246
Nsg247
Vg
p298
sg248
I2
sg249
I1
sg250
Nsbaa(lp299
(isrc.logic.tile
Tile
p300
(dp301
g236
g237
sg244
g245
sg246
Nsg247
I0
sg248
I0
sg249
I2
sg250
g280
sba(isrc.logic.tile
Tile
p302
(dp303
g236
g237
sg244
g245
sg246
Nsg247
I0
sg248
I1
sg249
I2
sg250
g291
sba(isrc.logic.tile
Tile
p304
(dp305
g236
g237
sg244
g245
sg246
Nsg247
I0
sg248
I2
sg249
I2
sg250
g293
sbaasg246
NsS'n'
p306
I3
sS'size_px'
p307
I180
sS'y_offset'
p308
I0
sS'x_offset'
p309
I0
sbsS'move'
p310
NsS'snakes'
p311
(lp312
g287
ag254
ag276
asS'parent_state'
p313
(isrc.logic.state
State
p314
(dp315
g236
(isrc.logic.map
Map
p316
(dp317
g239
(lp318
(lp319
(isrc.logic.tile
Tile
p320
(dp321
g236
g316
sg244
g245
sg246
Nsg247
I0
sg248
I0
sg249
I0
sg250
(isrc.logic.snake
SnakeElement
p322
(dp323
g248
I0
sg249
I0
sg253
(isrc.logic.snake
Snake
p324
(dp325
g244
g256
sg236
g316
sg257
(lp326
g322
a(isrc.logic.snake
SnakeElement
p327
(dp328
g248
I1
sg249
I0
sg253
g324
sg261
Nsba(isrc.logic.snake
SnakeElement
p329
(dp330
g248
I2
sg249
I0
sg253
g324
sg261
Nsbasg246
Nsg247
VB
p331
sbsg261
Nsbsba(isrc.logic.tile
Tile
p332
(dp333
g236
g316
sg244
g245
sg246
Nsg247
I0
sg248
I1
sg249
I0
sg250
g327
sba(isrc.logic.tile
Tile
p334
(dp335
g236
g316
sg244
g269
sg246
Nsg247
Vg
p336
sg248
I2
sg249
I0
sg250
g329
sbaa(lp337
(isrc.logic.tile
Tile
p338
(dp339
g236
g316
sg244
g245
sg246
Nsg247
I0
sg248
I0
sg249
I1
sg250
(isrc.logic.snake
SnakeElement
p340
(dp341
g248
I0
sg249
I1
sg253
(isrc.logic.snake
Snake
p342
(dp343
g244
g278
sg236
g316
sg257
(lp344
g340
a(isrc.logic.snake
SnakeElement
p345
(dp346
g248
I0
sg249
I2
sg253
g342
sg261
Nsbasg246
Nsg247
VG
p347
sbsg261
Nsbsba(isrc.logic.tile
Tile
p348
(dp349
g236
g316
sg244
g245
sg246
Nsg247
I0
sg248
I1
sg249
I1
sg250
(isrc.logic.snake
SnakeElement
p350
(dp351
g248
I1
sg249
I1
sg253
(isrc.logic.snake
Snake
p352
(dp353
g244
g289
sg236
g316
sg257
(lp354
g350
a(isrc.logic.snake
SnakeElement
p355
(dp356
g248
I1
sg249
I2
sg253
g352
sg261
Nsba(isrc.logic.snake
SnakeElement
p357
(dp358
g248
I2
sg249
I2
sg253
g352
sg261
Nsbasg246
Nsg247
VY
p359
sbsg261
Nsbsba(isrc.logic.tile
Tile
p360
(dp361
g236
g316
sg244
g269
sg246
Nsg247
Vg
p362
sg248
I2
sg249
I1
sg250
Nsbaa(lp363
(isrc.logic.tile
Tile
p364
(dp365
g236
g316
sg244
g245
sg246
Nsg247
I0
sg248
I0
sg249
I2
sg250
g345
sba(isrc.logic.tile
Tile
p366
(dp367
g236
g316
sg244
g245
sg246
Nsg247
I0
sg248
I1
sg249
I2
sg250
g355
sba(isrc.logic.tile
Tile
p368
(dp369
g236
g316
sg244
g245
sg246
Nsg247
I0
sg248
I2
sg249
I2
sg250
g357
sbaasg246
Nsg306
I3
sg307
I180
sg308
I0
sg309
I0
sbsg310
Nsg311
(lp370
g352
ag324
ag342
asg313
NsbsbsS'debug_info'
p371
NsS'MAX_RECURSION_DEPTH'
p372
I10000
sS'l_shortest'
p373
I6
sS'sols'
p374
(lp375
(lp376
S'ee0be63015cf99e80945f84023dac0b4'
p377
ag17
ag86
ag28
ag94
ag229
ag225
aa(lp378
g377
ag17
ag86
ag28
ag94
ag229
ag225
ag167
aa(lp379
g377
ag17
ag86
ag28
ag94
ag229
ag225
ag168
aa(lp380
g377
ag17
ag86
ag28
ag94
ag229
ag225
ag167
ag50
aa(lp381
g377
ag17
ag86
ag28
ag94
ag229
ag225
ag168
ag44
aa(lp382
g377
ag17
ag86
ag28
ag94
ag88
ag11
ag92
ag56
ag82
aasS'use_temp'
p383
I01
sS'quit_on_first'
p384
I00
sb.