(isrc.solve.solver
Solver
p0
(dp1
S'gr'
p2
ccopy_reg
_reconstructor
p3
(cnetworkx.classes.graph
Graph
p4
c__builtin__
object
p5
Ntp6
Rp7
(dp8
S'node'
p9
(dp10
S'ae610d53012626253b95631e88422b03'
p11
(dp12
S'complete'
p13
I01
ssS'1ad8e049f21278fdf749a52f6f4298fc'
p14
(dp15
sS'b8d4b0f46df8d39dc84a7a403d1dcf13'
p16
(dp17
sS'f27ebf2a18a1068ef1d2474be9c0aaf8'
p18
(dp19
sS'42ebef1861b1e97b23023fb38fb00e29'
p20
(dp21
sS'2792dc623598555c64f9c96260e905fc'
p22
(dp23
sS'a93ed76720f483034bb903dafdfcfc2b'
p24
(dp25
sS'859e2ce7aae037aad04ba11474235539'
p26
(dp27
sS'dce8b7ab2fbf09b91125abe45bf39984'
p28
(dp29
sS'9bd3201720e60e35457da7c8923cb36c'
p30
(dp31
sS'5c41e9395cef5004edbfc4add1be69ff'
p32
(dp33
sS'6e6005380887c166770707d58bcfe646'
p34
(dp35
sS'4ee4b77c4c444aa5d59b24a457915b7d'
p36
(dp37
sS'80952bf61ec2f4a82196f85175df94d8'
p38
(dp39
sS'7f4d9734f8b201938e8ba9e9a4349b5d'
p40
(dp41
sS'955e6892607618017793730321dfd948'
p42
(dp43
sS'a3a6246ce8ccbb3d8dc5b70fa4393c08'
p44
(dp45
sS'83b531d9db541cb12b7681e77f0d1c84'
p46
(dp47
sS'682129d0c6ebf62888662e48c38b7005'
p48
(dp49
sS'f380f5675992e423c339cc362ba84afb'
p50
(dp51
sS'b4ebf83cb0df9650c1f38da4a32bd9e5'
p52
(dp53
sS'de99229d740ba28f5254a9900faa26f2'
p54
(dp55
sS'3b3fbe4d56e1687ece14bf2001eaeda4'
p56
(dp57
sS'fa0425533d15696a4267bc3b066694ab'
p58
(dp59
sS'da3dcecd177f862d4a9f00effe17b9ec'
p60
(dp61
sS'1ef762ea0bb71f4e80f6df79c1b5e8a6'
p62
(dp63
sS'363d577470a2677b256177e9f59b864c'
p64
(dp65
sS'21c7abd5bcec205191f29d5aca0d1f45'
p66
(dp67
g13
I01
ssS'fc6da97907676f645e850d1293aa0952'
p68
(dp69
sS'3670d0098ef67c427d97ab174dfac455'
p70
(dp71
sS'ad52afc69d375d58b860d50dc9ce2c9a'
p72
(dp73
sS'f037b60957cecfdc6c78ec207106812f'
p74
(dp75
sS'be5b0f3598e415d3e1f2019cadf4048a'
p76
(dp77
sS'f02ac22db41be62526f1f39b8e445cca'
p78
(dp79
sS'edbe6c245cce95a1e13dac29be975e45'
p80
(dp81
sS'a83edcc7e037b493c7a6e1dfa26c647a'
p82
(dp83
sS'7ed8a313e1443bf9132375b19e88d06b'
p84
(dp85
sS'86fbf253371ffcfd79203d86ae82ccc2'
p86
(dp87
sS'70c2cd143d914c5ceba1b00113659d31'
p88
(dp89
sS'98526d3e744301e0dc1f912273494780'
p90
(dp91
sS'e67bd8bff8d21c3af2d852521a481277'
p92
(dp93
sS'e31d31a8e11a5a5398dde4d1640b87ce'
p94
(dp95
sS'd91fc37c1562dbcc71b55e49d986cfe7'
p96
(dp97
sS'2e71e2f95206335aea267b089be4ba05'
p98
(dp99
sS'b88711a40f2c013a10dde9bb5fc08be0'
p100
(dp101
sS'c2e4564b23400f438161b9a39438f580'
p102
(dp103
g13
I01
ssS'37b5279495c607525fe74405e60e9d0f'
p104
(dp105
sS'bda7b882d54aaaffab24fc06c9a7707f'
p106
(dp107
g13
I01
ssS'24cd5316fcb7ee18bb22073fb7d78ec7'
p108
(dp109
sS'c2765d140521c57814a0d860ecd00b6b'
p110
(dp111
g13
I01
ssS'3b7ea5e731555d171390841293984dca'
p112
(dp113
sS'5c178d27e1490e936149bf710ea13740'
p114
(dp115
sS'703751475fbc3f74e17cbdb034b9df24'
p116
(dp117
sS'06b102cbb20e00c2d25409f6d421ebc6'
p118
(dp119
sS'b619a340a6704de258016c2b5ba8dc23'
p120
(dp121
sS'797d200dbc4a9d78de77f694638dddb9'
p122
(dp123
g13
I01
ssS'e55fe29a09fcabdbbb2f368bcee4b63e'
p124
(dp125
g13
I01
ssS'1ac38706499ef2972fa1d0a37889ddad'
p126
(dp127
sS'4c7aa06c3ad929bf2a467b4cd3f099d1'
p128
(dp129
sS'3e5c3ed8bedd141444acce2eb20d4f6a'
p130
(dp131
sS'5c08ba4b98647a293e16cec48df67c7e'
p132
(dp133
sS'1f77a240df3a882ee8e286be01117e6c'
p134
(dp135
sS'dd236db43a3102ab031c8b0d93b40bcc'
p136
(dp137
sS'76b437eb106112784a471e565bbbd595'
p138
(dp139
sS'ad90f432e8d396521409a5d58fcbf7f3'
p140
(dp141
sS'1edb194ce9573f5c11d85ddbae05a097'
p142
(dp143
sS'074beb4953e904d7180ff0ca97e5ae6a'
p144
(dp145
sS'f6d7a3fdc93617a4be69e06c75555362'
p146
(dp147
sS'e3354efdd4befd2cae852e831ce327bd'
p148
(dp149
sS'0814d4292e01c5a6251f773dc43d97c2'
p150
(dp151
sS'67301f081c7afa44c525d250f9b6cf33'
p152
(dp153
sS'c082c6178d97d63b39584cc3e138b337'
p154
(dp155
sS'72e7f573d2d7d70b485e6303465165a6'
p156
(dp157
sS'd0f8a8609396e334416c70f38b5c0d3e'
p158
(dp159
sS'7ab52a4dbe3f08806147c87ee9119faa'
p160
(dp161
sS'0a4b234a35e742cb0a0e62d2766b77ea'
p162
(dp163
sS'd5c602d46a0a92a064faca12d9dfd6a6'
p164
(dp165
g13
I01
ssS'd51056791976d9056c92bd21ff0d784d'
p166
(dp167
sS'000615a3ec04a0a1db3fab962b1fe34f'
p168
(dp169
sS'a2eeea736dbbe1c4f38931325454e0de'
p170
(dp171
sS'196b1109990e4f428b264669dc641528'
p172
(dp173
sS'567d4d0dbbf111e48fdfd404770841a8'
p174
(dp175
sS'7ac349ebdd097a679f7aa42010c52a57'
p176
(dp177
sS'5d06bd02ccb83a33eb037e3f7703c0eb'
p178
(dp179
sS'f4749c01c600fb9a309f8d1478be8c45'
p180
(dp181
sS'2264f04d6e1b9a6ef0aba0afe5a2ed84'
p182
(dp183
sS'2b5a74738b050b07e938e74eb1e83615'
p184
(dp185
sS'18c9b7bbdb2e2030a5134b4acb789e69'
p186
(dp187
sS'705f6c3297f62c769bf97e2c73c7ae23'
p188
(dp189
sS'e68978faf7c9826bb37b6938d98b106f'
p190
(dp191
sS'1c63f017cd523e833cd3bf8b1828994a'
p192
(dp193
sS'f0eefc977290dee4fa7c54650a132721'
p194
(dp195
sS'3a416ab96ec413547ddb03d0fefc249e'
p196
(dp197
sS'1f737a9f0b168f4c42161217fb1f0e31'
p198
(dp199
sS'ae181f75183e6023409e94d4208d03b3'
p200
(dp201
sS'9ce9271d87be6287e0b50efff59fea57'
p202
(dp203
sS'7c495e6745f609e0414819bea979d9b9'
p204
(dp205
g13
I01
ssS'5e400c88de2e9043b9d438b396b1b6cc'
p206
(dp207
sS'6a3c849ee66fa567d20ef46620f947a2'
p208
(dp209
sS'98ecd4a348256d9bd48dcd406fad2760'
p210
(dp211
sS'5b47ce71055d50f1a5b87d6cc43e8c24'
p212
(dp213
sS'4c51a2fbaf61639f4fb99c3f65b135e3'
p214
(dp215
sS'20ca4f9d9da346f4af6e6db20faa1c46'
p216
(dp217
g13
I01
ssS'a3801ac7f7fdd93f54e748f13929fe9e'
p218
(dp219
sS'15fccb526fb071018fa606044e869c3d'
p220
(dp221
sS'81d19e6bc793dbed247af7c7421db538'
p222
(dp223
sS'93fff81eb59fce106c4bdba7357ec022'
p224
(dp225
sS'6d9637ce576be504a07ed776a64aacd8'
p226
(dp227
sS'e1ecda7920fbf0d112a70c533044e376'
p228
(dp229
sS'3ce86a970f70410a0f98dc518fb6e357'
p230
(dp231
sS'130eef8613b78d2c5a8f03b46dbdb0a4'
p232
(dp233
sS'33e834c2cfa965e149e53c1e70d41e2c'
p234
(dp235
sS'673aa7cf2fd0d6072ab6cefae1cb479c'
p236
(dp237
sS'1f4f7052a7f0cf41e96ea6227042e077'
p238
(dp239
sS'12cbb7ab5efa892824bd9653c31bc2a7'
p240
(dp241
sS'41c47f5caebd82788a35e113d0acdde6'
p242
(dp243
sS'6df49aa048932fb624ad968155b6a608'
p244
(dp245
sS'1d9bcd62a48c38b7e2940c80b5e7a543'
p246
(dp247
sS'1e32e3de3e85e4c246d7d3bb489bac41'
p248
(dp249
sS'9fbfc7f7b7318400b60e113f57cc53ed'
p250
(dp251
sS'6d1c53787be69b693be38301d7b33b71'
p252
(dp253
sS'3f74704f54e9ca8189993240a20da8ea'
p254
(dp255
sS'c7af22bed4c3b6d74f0b2e7bd41b3014'
p256
(dp257
sS'd63f11ff1e4479b4b60bc2f4769eb6d9'
p258
(dp259
sS'954a0fce79119dddee9835839dd3cde2'
p260
(dp261
sS'6a4277c82a9560d3a79b091ca3496f82'
p262
(dp263
sS'0df2d88dbf5f0ac28ca38e0e43e04e78'
p264
(dp265
sS'90df3ae7a3e64a64beaf61b075946a56'
p266
(dp267
sS'dd89f7414b6d3389b5d9fc120bb6fd61'
p268
(dp269
sS'b473e66e40eecf0bf6b2826c185d8b25'
p270
(dp271
sS'047bf4002df431a1a86bb96a69412798'
p272
(dp273
sS'6969e3e6c8edb05157319706b793b170'
p274
(dp275
sS'b1ad19db3fc2c36db44ae1cc6ccc971a'
p276
(dp277
sS'86f6afc66d14bf38668b5add80954ae9'
p278
(dp279
g13
I01
ssS'7516a21bd5d75251698c9d0bd65f5c1d'
p280
(dp281
sS'5a360f6423ae7b59b2e7af730654cc08'
p282
(dp283
g13
I01
ssS'57b5ea0de4389f06da0563dbf956ef3b'
p284
(dp285
sS'8ff9d12edc0af6958a3dcc488d75d987'
p286
(dp287
sS'9fa0000b2fcd8c83e66cc7767c6a2501'
p288
(dp289
sS'a3835212bc29547d75c19cf6cee3221d'
p290
(dp291
sS'172e38c51467e0ae7aa6ef1f40a50224'
p292
(dp293
sS'6bd9571788b6ed5b79f003d0a803111a'
p294
(dp295
sS'6100bb986a127099a6aec11d4f8d36c2'
p296
(dp297
sS'75c10259ba1cc86df036b2a95c6d9f41'
p298
(dp299
sS'3eb870e07ccfd18e8b3bc517afb953a8'
p300
(dp301
sS'b73a8d25b23e1a9ebd7b0076c85becfe'
p302
(dp303
sS'854aa1e6e4343516edfc920f98b700e9'
p304
(dp305
sS'b54eb15373fb0ad29fa4938932095a30'
p306
(dp307
sS'3520c496da7b1bf98bba1d40a3e735dd'
p308
(dp309
sS'baba73a8dcb90ae4bc79accdceb54dc7'
p310
(dp311
sS'fca42ef3266420748e9fba5918f3f424'
p312
(dp313
sS'd590faa196b118dbd310fb8f7ac52ab9'
p314
(dp315
sS'b2016ab36615f2c60eaf66044f5f6384'
p316
(dp317
sS'2d950d462ff33c9069739131a5502458'
p318
(dp319
sS'9909cc21396a163eeed6006e000a6465'
p320
(dp321
sS'c698f52b01efd26f2cc40c21108e5664'
p322
(dp323
sS'17c695f039736d67ad599ccaa076b46f'
p324
(dp325
g13
I01
ssS'5e80027462948eb147d5e20d04fa034e'
p326
(dp327
sS'da9bf4feb3d2b8d98b4c4e331ac3a601'
p328
(dp329
sS'999402fbdb6aa92fc88975be9aa474e8'
p330
(dp331
sS'6d25b34b771886ed4ffc46e5e8cff86a'
p332
(dp333
sS'69483e68a6e4faee8b158fedd636f868'
p334
(dp335
sS'ea1a737dbaf8a42146adefc01493d9ea'
p336
(dp337
sS'a0d4299f2c3d35c6272fa442230aa40e'
p338
(dp339
sS'a645c492690c97f9af8c2f96cb8845d3'
p340
(dp341
sS'9accb2c39087b7f8420a2bf8bc318fab'
p342
(dp343
sS'fdb82e135729290dbe39e38d4ee608ad'
p344
(dp345
sS'22e74f78bb5144ee419c365e87510cea'
p346
(dp347
sS'8548bb0592c24dd4e3fcb85783148570'
p348
(dp349
sS'5df28c9583bd139b508e27a7f74e6fb9'
p350
(dp351
sS'f5d67969b9605bdbe39e7753b3c3cd8e'
p352
(dp353
sS'173631a9070e1e214032bd1d7b693922'
p354
(dp355
sS'8ca458ae37615f58c6ba843304a924a1'
p356
(dp357
sS'295f347e422fa51a2f247854cde4c615'
p358
(dp359
sS'9d5fddfe5a0db613bf90045cec06734c'
p360
(dp361
sS'a919babd24110152c2ec283cb2cd608d'
p362
(dp363
sS'f975ceb579405a4051745012090e93b7'
p364
(dp365
sS'61a6b68f0e1e0c2266938dd19328ad10'
p366
(dp367
sS'3e85f3de20f7e89ab9d36651a22d3183'
p368
(dp369
sS'301ea5555a8e8f003f5ee2369a7ea380'
p370
(dp371
sS'403daefeab9bb4c563d9f319eb54f0d2'
p372
(dp373
sS'0a648556b537f9348bddc32480df1700'
p374
(dp375
sS'2d6a09822570b1b57f3242e51cb50427'
p376
(dp377
sS'2da3125d35359b43c3759241913bff28'
p378
(dp379
sS'114238b144d5151babd4ac0c9e39cc8f'
p380
(dp381
sS'e0b050714743db2a6c7dfd1cf1553b36'
p382
(dp383
sS'5a539a2adba64302b795ec90a0a940df'
p384
(dp385
sS'6813c5ef5b03a5fdeb4778d7dc2d4cdd'
p386
(dp387
sS'bc8bbe54677b504cf17d3089878a3e0a'
p388
(dp389
sS'2844fddbb522e3b4fed7cd19970adcf7'
p390
(dp391
sS'2c2e96257a65936e8030b530d97a25ef'
p392
(dp393
sS'492dbbb027e95caa0838ff1c6989c775'
p394
(dp395
sS'4b4005c1c7a27737d2b6cf00cd63f521'
p396
(dp397
sS'c0fb30e24f466dcbbc788a676efe89a4'
p398
(dp399
sS'233091ac4da820d0a98b6b361b35a6f1'
p400
(dp401
sS'a6e9eeff159e9a81b36c36d588f2d602'
p402
(dp403
sS'70f166666183fcd58861e763d93a8902'
p404
(dp405
sS'fb83748ab0f9b9fe39ffdddc47590dc3'
p406
(dp407
sS'53825f2e74bc9fe41f70923231dd5bbd'
p408
(dp409
sS'16bfbe128181718207858ccb940e84ab'
p410
(dp411
sS'0b1cb8ec21934b4be114f8d774e1f375'
p412
(dp413
sS'f6fdcbb72c2c4b21dd4214c756cd9f85'
p414
(dp415
g13
I01
ssS'362d57549b8c3b24d361e3b9c7dfe229'
p416
(dp417
sS'e5c1642965da8799832f5feef80a1e0b'
p418
(dp419
sS'62a0894aae2ea33fefca7dfc8cda10ec'
p420
(dp421
sS'f053d0f6941ce101d02a08592da8a4c7'
p422
(dp423
sS'62d0dbbbef3202275cc2276ffd98adf1'
p424
(dp425
sS'806a2f50ab9bbeb678bcdf80950211e8'
p426
(dp427
sS'e4bee6a31d3efef8b2f33b68edc6ea94'
p428
(dp429
sS'e4752950920ac23b1707610a080b9b9f'
p430
(dp431
sS'879baa52d1c939fb8165487c85ed0a6c'
p432
(dp433
sS'7eab081e06809840ec3326d8994df5f8'
p434
(dp435
sS'8fe9b06b0c87fb9ee69f23e304922e43'
p436
(dp437
sS'8a1cd823986639838f37dfa186d0213b'
p438
(dp439
sS'b8f223b570eb038b0eff493116038220'
p440
(dp441
sS'42d501e4bac0c3f1e4a9e81bdada1f2a'
p442
(dp443
sS'2b137df6e00a416adcae4393e6dd05db'
p444
(dp445
sS'ba702c318aea035dd51f7877e6599637'
p446
(dp447
sS'8127cfe4ed949a9a419a221efee57382'
p448
(dp449
sS'628595b71c08a6ac47fad8a4ff985929'
p450
(dp451
sS'027e14a2e5526e277a07fe1d586bd047'
p452
(dp453
sS'9d926f6840d1531039f69a8e60749876'
p454
(dp455
sS'e383b22b7a4ca6e97342541f3c7f3a90'
p456
(dp457
sS'268773e61c84c8713c1a3925af497071'
p458
(dp459
sS'31254e9aaff01cb4409d3c2709a66a4b'
p460
(dp461
sS'4f0965e90bf1228c3a09000f65a8563b'
p462
(dp463
sS'a90639ec3cd93211c806b5591acd9164'
p464
(dp465
sS'674f13c99dc6a7b325480d25a9064154'
p466
(dp467
sS'c129726418f133bad54c64770373ba6c'
p468
(dp469
sS'83eb544b0a5d8a577c2e269b88b84c4b'
p470
(dp471
sS'453a0d2a7c02caabd6914c34679c162c'
p472
(dp473
sS'538cac24885c97ad0f9b3b982247b8cb'
p474
(dp475
sS'4c8df87c987f74c8779bb607bd762dd4'
p476
(dp477
sS'0416fe9e50470368f9663093bb29f86d'
p478
(dp479
sS'86896c2841375e425805a5362903d19d'
p480
(dp481
sS'd673f9514ab885542bf1771c9f6c2c61'
p482
(dp483
g13
I01
ssS'0d6318689039fc8cd4985263a8166cca'
p484
(dp485
sS'c5fc7e6568d342baffb36f98bd225511'
p486
(dp487
sS'912ac0469b04143a3578a2377777f0cb'
p488
(dp489
sS'205891670b7a5fd5a96b648ca50369fa'
p490
(dp491
sS'bce4aad5b44fb5dc8aefb5c98cf2eb58'
p492
(dp493
sS'595584c511f14392a046bbc88a1a70e6'
p494
(dp495
sS'7e0caf2d8dccb63a30115ae83e7f407c'
p496
(dp497
sS'd2ed9133404cd9859f772b8750276d98'
p498
(dp499
sS'b6d21fe9a0a690a0bf3cc53ddc0c1156'
p500
(dp501
sS'5b2174cce208998eb659cd0c2624834b'
p502
(dp503
sS'409905f89ce13bd12b76a7f9bbec4aa6'
p504
(dp505
sS'66c57891d378ed8c08f4d13a284cce34'
p506
(dp507
sS'94cf4320d2369960b9ea01019d1cd107'
p508
(dp509
sS'e8c684d8997941ced72624c5d4d7b109'
p510
(dp511
sS'32097faf1a74b0e6e0d4f1b4a80f8e41'
p512
(dp513
sS'eecf178578573c4f5622cde3521a9c06'
p514
(dp515
g13
I01
ssS'eaa6dc4ffc71543d4314da96350867d7'
p516
(dp517
sS'dfa331b9f2268c389da153ec5c55cf97'
p518
(dp519
g13
I01
ssS'45ee2782bb7876366433d2557703a04a'
p520
(dp521
sS'f1c6352ef41aac79b98f8cfcddde0249'
p522
(dp523
sS'1fef71797b8589c13d9e7351c9de8554'
p524
(dp525
sS'7f4eb4721f81cce38b5766f73af4e753'
p526
(dp527
sS'2ac948ac33b8c3f2d65685a52b39a519'
p528
(dp529
sS'43be9471a27db095baa2a5e80516d0c6'
p530
(dp531
sS'44724a200b56f906e8d12563c16297d0'
p532
(dp533
sS'cd775b4a400e39477a0ea7673261c252'
p534
(dp535
sS'9785e069d0d193793a7eb1b6fd44f1e1'
p536
(dp537
sS'29c87ba98335c1a677d67231efc52ecc'
p538
(dp539
sS'a6f138b42f6e2c0b6b01716503cb6bb0'
p540
(dp541
sS'1978e4e05ea4e967f8a15e097f786763'
p542
(dp543
sS'59daaa1d1d2e40f7ef06f6cc3b12924e'
p544
(dp545
sS'4ce65f4126728ee27522d3a38b1e7092'
p546
(dp547
sS'5e26bac7f159a51990fc5dd6d5fc6f60'
p548
(dp549
sS'510730b0e9be193442f837d4d6e5e539'
p550
(dp551
sS'608d610894dc504777699ed006588767'
p552
(dp553
sS'e062d1cf8bd7c8f9a557cc52ae48d4c7'
p554
(dp555
sS'a9c1c7189e1ae424be484c6cb8c24d0f'
p556
(dp557
sS'3642b068d7e0bac7235cb4cc34aa5a14'
p558
(dp559
sS'82f60094d6d020d027f99c642e859c66'
p560
(dp561
sS'8115a8d45f5f265dfa8578c70398e6bb'
p562
(dp563
g13
I01
ssS'2ce7ec6010b54f5d92690f64bcd28473'
p564
(dp565
sS'5cf30d1b213978be797c12056f9f1834'
p566
(dp567
sS'18e57c892d50b9310b1a5f278e946821'
p568
(dp569
sS'b04c6e9e3dd63a2f9dd1884c702981a2'
p570
(dp571
sS'43569e7fdbe9ec95d3edeab6fdaf746f'
p572
(dp573
sS'6c97359a731357bc8cc2712c80bc04f5'
p574
(dp575
sS'1ebbd22b2ae26d970197fbe90b8fd252'
p576
(dp577
sS'57615238a90fba7dcf244e283b1439fc'
p578
(dp579
sS'1fc57b7d26636f44f71c617730fd90ab'
p580
(dp581
sS'5512e9c6fe4016cf01e5002b5769005b'
p582
(dp583
sS'07e3bc7269a19d6dbb46ba580f625372'
p584
(dp585
sS'eaff0e05df88fc2c46ed7712b5aa7c75'
p586
(dp587
sS'42131bad3ded1ed4c0d25500772e3003'
p588
(dp589
sS'b6f09296a131a8f5a85c29b86187448a'
p590
(dp591
sS'bf18018a75592f47437447eddffc30c9'
p592
(dp593
sS'332067115bfd5b97b8c0bc2c64f8623f'
p594
(dp595
sS'5772fba58ba64893bd9e003c4cbf8f02'
p596
(dp597
sS'44a6e83213107319ab9555f16ce2c131'
p598
(dp599
sS'e019b288b606d9112cfae80bff0daef1'
p600
(dp601
sS'55c194dc1c0ce036c5bb77202ff9185e'
p602
(dp603
sS'6bfd4167f253715a9ddc8e4cfb338da5'
p604
(dp605
sS'512b557876a156ffda35f418ced81496'
p606
(dp607
sS'0f8ea52f73a48c33b75b4c3b0e95773f'
p608
(dp609
sS'6fe7398446e27350a6ab83be4de79377'
p610
(dp611
sS'29cbe20b3c999016298e67d0d1114ed9'
p612
(dp613
sS'd0a810535b7cda9ed87653f8f9d9aa0e'
p614
(dp615
sS'4933f9046d63d877f3a5d4e8650c8d4c'
p616
(dp617
sS'd71eb099b3efcc2bfc2a9f08b86ff78b'
p618
(dp619
sS'ffe16d914c3dde55a453f84adb3e6092'
p620
(dp621
sS'6318498db23e7ab422973cb504013cc1'
p622
(dp623
sS'31bdc854371ae276ab93728f24ee01d7'
p624
(dp625
sS'1f667e2e1a057915b73ffe1c6683cca9'
p626
(dp627
sS'2f3f84f5512573301fe76fb6d1477dcb'
p628
(dp629
sS'c42022a3525b3a2d63ed3a5cdf25f71c'
p630
(dp631
sS'4a0c45c9d4f545957297b028c16e4353'
p632
(dp633
sS'cd4ca8736d8de6eee1846415025ac7d1'
p634
(dp635
sS'977349c6635bfd8f9b7b6927f15bff2c'
p636
(dp637
sS'b6ffdc7d178844167846f5925f9c72b6'
p638
(dp639
sS'bd66e291fd7823042ce2d5f298a2d715'
p640
(dp641
sS'a5a5e264374fceeb4dd35e5d2bc2a6fc'
p642
(dp643
sS'793cc59e7ec683f3fdd838b4cb789761'
p644
(dp645
sS'519080e1b1841a67d82c9b3b16a177d3'
p646
(dp647
sS'61176fae0bf362231e73ea8d09db003d'
p648
(dp649
sS'07b6e9e7f5345adbe2c5ab88a723578c'
p650
(dp651
sS'bc5756c8134c1f1c9c76b5b766b58506'
p652
(dp653
sS'80f1dbbba37b1285d33ab1289d496c39'
p654
(dp655
sS'4bae368808488236358b6b80a3651b15'
p656
(dp657
sS'c52070087c68f97fa8b3a81f22367fa7'
p658
(dp659
sS'72376237c0102facf585cca50ca7ec24'
p660
(dp661
sS'20da553f8e2bf9a902ad87dbf6b62b9b'
p662
(dp663
sS'de3c0a0a86bf57659e95a232abd4f6e2'
p664
(dp665
sS'538a13832473a54cce857c5f677c337e'
p666
(dp667
sS'59fa39c325c4e8eb15af0e2513f771ca'
p668
(dp669
sS'871805628cc89e822f8d3e9c536b1b7e'
p670
(dp671
sS'6ef827115171f099948fe0769c72c2f8'
p672
(dp673
sS'a52b78a3fbd0393a60e77d6f5d751f69'
p674
(dp675
sS'6b293c8e4e3295bc4186de933e4c547a'
p676
(dp677
sS'2af57ee4e44766ff5dc2cebac212af7f'
p678
(dp679
sS'74dfa8930f0d9177d378945dbba7d642'
p680
(dp681
sS'75931233580988d6daf70980661f48da'
p682
(dp683
sS'08f8002c4d45f541afa941e2cf4d7bc6'
p684
(dp685
sS'c62e3c841508282f47930ab1e0cee9e9'
p686
(dp687
sS'c764171e05660c3b8023f0e4a72c0aa5'
p688
(dp689
sS'676917c80ec04c40a1a68072c94f8047'
p690
(dp691
ssS'graph'
p692
(dp693
S'finals'
p694
(lp695
g518
ag11
ag414
ag324
ag204
ag110
ag278
ag106
ag282
ag124
ag66
ag122
ag102
ag216
ag562
ag514
ag482
ag164
assS'edge'
p696
(dp697
g11
(dp698
S'4b4005c1c7a27737d2b6cf00cd63f521'
p699
(dp700
sS'dfa331b9f2268c389da153ec5c55cf97'
p701
(dp702
sg394
(dp703
ssg14
(dp704
g650
(dp705
sS'd0a810535b7cda9ed87653f8f9d9aa0e'
p706
(dp707
ssg16
(dp708
g368
(dp709
sg156
(dp710
sS'027e14a2e5526e277a07fe1d586bd047'
p711
(dp712
ssg18
(dp713
g88
(dp714
sg356
(dp715
sS'806a2f50ab9bbeb678bcdf80950211e8'
p716
(dp717
ssg20
(dp718
S'000615a3ec04a0a1db3fab962b1fe34f'
p719
(dp720
ssg22
(dp721
g188
(dp722
sS'7f4d9734f8b201938e8ba9e9a4349b5d'
p723
(dp724
ssg24
(dp725
g382
(dp726
sS'62d0dbbbef3202275cc2276ffd98adf1'
p727
(dp728
ssg26
(dp729
S'c2765d140521c57814a0d860ecd00b6b'
p730
(dp731
ssg28
(dp732
g298
(dp733
sg228
(dp734
sS'da9bf4feb3d2b8d98b4c4e331ac3a601'
p735
(dp736
ssg30
(dp737
S'2ce7ec6010b54f5d92690f64bcd28473'
p738
(dp739
sS'45ee2782bb7876366433d2557703a04a'
p740
(dp741
ssg32
(dp742
g134
(dp743
sS'29c87ba98335c1a677d67231efc52ecc'
p744
(dp745
ssg34
(dp746
g618
(dp747
sS'4f0965e90bf1228c3a09000f65a8563b'
p748
(dp749
ssg36
(dp750
g478
(dp751
sg450
(dp752
sS'eaa6dc4ffc71543d4314da96350867d7'
p753
(dp754
ssg38
(dp755
g664
(dp756
sS'a3a6246ce8ccbb3d8dc5b70fa4393c08'
p757
(dp758
ssg40
(dp759
g22
g724
sS'6d25b34b771886ed4ffc46e5e8cff86a'
p760
(dp761
ssg42
(dp762
S'ea1a737dbaf8a42146adefc01493d9ea'
p763
(dp764
sS'5c178d27e1490e936149bf710ea13740'
p765
(dp766
sS'1f77a240df3a882ee8e286be01117e6c'
p767
(dp768
ssg44
(dp769
g38
g758
sS'453a0d2a7c02caabd6914c34679c162c'
p770
(dp771
sS'a2eeea736dbbe1c4f38931325454e0de'
p772
(dp773
ssg46
(dp774
S'512b557876a156ffda35f418ced81496'
p775
(dp776
ssg48
(dp777
S'82f60094d6d020d027f99c642e859c66'
p778
(dp779
sg604
(dp780
ssg50
(dp781
S'2d950d462ff33c9069739131a5502458'
p782
(dp783
sS'7eab081e06809840ec3326d8994df5f8'
p784
(dp785
ssg52
(dp786
S'a6f138b42f6e2c0b6b01716503cb6bb0'
p787
(dp788
sg676
(dp789
ssg54
(dp790
S'07b6e9e7f5345adbe2c5ab88a723578c'
p791
(dp792
ssg56
(dp793
S'8ff9d12edc0af6958a3dcc488d75d987'
p794
(dp795
sg660
(dp796
sg608
(dp797
ssg58
(dp798
g514
(dp799
sS'047bf4002df431a1a86bb96a69412798'
p800
(dp801
ssg60
(dp802
S'93fff81eb59fce106c4bdba7357ec022'
p803
(dp804
sg454
(dp805
ssg62
(dp806
S'75931233580988d6daf70980661f48da'
p807
(dp808
sg288
(dp809
sg82
(dp810
ssg64
(dp811
S'3b7ea5e731555d171390841293984dca'
p812
(dp813
sS'69483e68a6e4faee8b158fedd636f868'
p814
(dp815
sg484
(dp816
ssg66
(dp817
g178
(dp818
sS'f037b60957cecfdc6c78ec207106812f'
p819
(dp820
sS'e55fe29a09fcabdbbb2f368bcee4b63e'
p821
(dp822
ssg68
(dp823
S'6c97359a731357bc8cc2712c80bc04f5'
p824
(dp825
sg180
(dp826
sS'1ac38706499ef2972fa1d0a37889ddad'
p827
(dp828
ssg70
(dp829
g392
(dp830
sS'd2ed9133404cd9859f772b8750276d98'
p831
(dp832
sg352
(dp833
ssg72
(dp834
S'999402fbdb6aa92fc88975be9aa474e8'
p835
(dp836
sS'2da3125d35359b43c3759241913bff28'
p837
(dp838
sg430
(dp839
ssg74
(dp840
S'2c2e96257a65936e8030b530d97a25ef'
p841
(dp842
sg66
g820
ssg76
(dp843
S'5a539a2adba64302b795ec90a0a940df'
p844
(dp845
ssg78
(dp846
S'8115a8d45f5f265dfa8578c70398e6bb'
p847
(dp848
ssg80
(dp849
S'3e85f3de20f7e89ab9d36651a22d3183'
p850
(dp851
sS'72e7f573d2d7d70b485e6303465165a6'
p852
(dp853
sg234
(dp854
ssg82
(dp855
S'1ef762ea0bb71f4e80f6df79c1b5e8a6'
p856
g810
sg342
(dp857
ssg84
(dp858
S'268773e61c84c8713c1a3925af497071'
p859
(dp860
sS'd5c602d46a0a92a064faca12d9dfd6a6'
p861
(dp862
ssg86
(dp863
g488
(dp864
sS'1d9bcd62a48c38b7e2940c80b5e7a543'
p865
(dp866
sg642
(dp867
ssg88
(dp868
S'f27ebf2a18a1068ef1d2474be9c0aaf8'
p869
g714
sg310
(dp870
sg268
(dp871
ssg90
(dp872
S'8127cfe4ed949a9a419a221efee57382'
p873
(dp874
sS'b04c6e9e3dd63a2f9dd1884c702981a2'
p875
(dp876
sg94
(dp877
ssg92
(dp878
S'20ca4f9d9da346f4af6e6db20faa1c46'
p879
(dp880
sS'b6f09296a131a8f5a85c29b86187448a'
p881
(dp882
sS'61176fae0bf362231e73ea8d09db003d'
p883
(dp884
ssg94
(dp885
S'98526d3e744301e0dc1f912273494780'
p886
g877
sg182
(dp887
ssg96
(dp888
S'6ef827115171f099948fe0769c72c2f8'
p889
(dp890
sS'b1ad19db3fc2c36db44ae1cc6ccc971a'
p891
(dp892
ssg98
(dp893
g592
(dp894
sg719
(dp895
sS'362d57549b8c3b24d361e3b9c7dfe229'
p896
(dp897
ssg100
(dp898
S'22e74f78bb5144ee419c365e87510cea'
p899
(dp900
sS'b6d21fe9a0a690a0bf3cc53ddc0c1156'
p901
(dp902
ssg102
(dp903
g216
(dp904
sS'6d1c53787be69b693be38301d7b33b71'
p905
(dp906
ssg104
(dp907
S'7ac349ebdd097a679f7aa42010c52a57'
p908
(dp909
ssg106
(dp910
S'86f6afc66d14bf38668b5add80954ae9'
p911
(dp912
sg282
(dp913
sg238
(dp914
ssg108
(dp915
S'b2016ab36615f2c60eaf66044f5f6384'
p916
(dp917
sS'6bfd4167f253715a9ddc8e4cfb338da5'
p918
(dp919
ssg110
(dp920
g26
g731
sg292
(dp921
sS'7c495e6745f609e0414819bea979d9b9'
p922
(dp923
ssg112
(dp924
S'ad90f432e8d396521409a5d58fcbf7f3'
p925
(dp926
sg64
g813
sS'519080e1b1841a67d82c9b3b16a177d3'
p927
(dp928
ssg114
(dp929
g152
(dp930
sS'955e6892607618017793730321dfd948'
p931
g766
sg827
(dp932
ssg116
(dp933
g172
(dp934
sS'cd4ca8736d8de6eee1846415025ac7d1'
p935
(dp936
sg212
(dp937
ssg118
(dp938
g336
(dp939
sg638
(dp940
sg767
(dp941
ssg120
(dp942
g711
(dp943
sS'1f737a9f0b168f4c42161217fb1f0e31'
p944
(dp945
ssg122
(dp946
g546
(dp947
sS'e55fe29a09fcabdbbb2f368bcee4b63e'
p948
(dp949
ssg124
(dp950
g122
g949
sg841
(dp951
sS'21c7abd5bcec205191f29d5aca0d1f45'
p952
g822
ssg126
(dp953
g68
g828
sg114
g932
sS'b73a8d25b23e1a9ebd7b0076c85becfe'
p954
(dp955
ssg128
(dp956
g542
(dp957
sS'44724a200b56f906e8d12563c16297d0'
p958
(dp959
sg422
(dp960
sg252
(dp961
ssg130
(dp962
S'9d926f6840d1531039f69a8e60749876'
p963
(dp964
sg390
(dp965
ssg132
(dp966
g406
(dp967
sg260
(dp968
sS'72376237c0102facf585cca50ca7ec24'
p969
(dp970
ssg134
(dp971
g42
g768
sS'5c41e9395cef5004edbfc4add1be69ff'
p972
g743
sg118
g941
ssg136
(dp973
S'32097faf1a74b0e6e0d4f1b4a80f8e41'
p974
(dp975
ssg138
(dp976
g791
(dp977
sg706
(dp978
ssg140
(dp979
g112
g926
sS'4933f9046d63d877f3a5d4e8650c8d4c'
p980
(dp981
ssg142
(dp982
S'6d9637ce576be504a07ed776a64aacd8'
p983
(dp984
sg320
(dp985
ssg144
(dp986
g446
(dp987
sS'f4749c01c600fb9a309f8d1478be8c45'
p988
(dp989
ssg146
(dp990
S'b6ffdc7d178844167846f5925f9c72b6'
p991
(dp992
sg404
(dp993
ssg148
(dp994
S'43be9471a27db095baa2a5e80516d0c6'
p995
(dp996
sg386
(dp997
ssg150
(dp998
S'9accb2c39087b7f8420a2bf8bc318fab'
p999
(dp1000
ssg152
(dp1001
g765
g930
sS'e68978faf7c9826bb37b6938d98b106f'
p1002
(dp1003
ssg154
(dp1004
S'e5c1642965da8799832f5feef80a1e0b'
p1005
(dp1006
sS'6df49aa048932fb624ad968155b6a608'
p1007
(dp1008
sS'a90639ec3cd93211c806b5591acd9164'
p1009
(dp1010
ssg156
(dp1011
S'b8d4b0f46df8d39dc84a7a403d1dcf13'
p1012
g710
sg80
g853
ssg158
(dp1013
g554
(dp1014
sg460
(dp1015
sS'a5a5e264374fceeb4dd35e5d2bc2a6fc'
p1016
(dp1017
ssg160
(dp1018
S'a6e9eeff159e9a81b36c36d588f2d602'
p1019
(dp1020
ssg162
(dp1021
S'233091ac4da820d0a98b6b361b35a6f1'
p1022
(dp1023
sg452
(dp1024
ssg164
(dp1025
g566
(dp1026
sg84
g862
sS'd673f9514ab885542bf1771c9f6c2c61'
p1027
(dp1028
ssg166
(dp1029
g168
(dp1030
sg896
(dp1031
ssg168
(dp1032
S'd51056791976d9056c92bd21ff0d784d'
p1033
g1030
sg20
g720
sg652
(dp1034
sS'2e71e2f95206335aea267b089be4ba05'
p1035
g895
ssg170
(dp1036
g757
g773
sS'e062d1cf8bd7c8f9a557cc52ae48d4c7'
p1037
(dp1038
ssg172
(dp1039
g332
(dp1040
sS'66c57891d378ed8c08f4d13a284cce34'
p1041
(dp1042
sS'703751475fbc3f74e17cbdb034b9df24'
p1043
g934
ssg174
(dp1044
S'a3835212bc29547d75c19cf6cee3221d'
p1045
(dp1046
sS'f1c6352ef41aac79b98f8cfcddde0249'
p1047
(dp1048
sS'c42022a3525b3a2d63ed3a5cdf25f71c'
p1049
(dp1050
ssg176
(dp1051
g264
(dp1052
sg104
g909
sS'9fbfc7f7b7318400b60e113f57cc53ed'
p1053
(dp1054
sg284
(dp1055
ssg178
(dp1056
g952
g818
ssg180
(dp1057
S'fc6da97907676f645e850d1293aa0952'
p1058
g826
sg144
g989
sS'ae181f75183e6023409e94d4208d03b3'
p1059
(dp1060
ssg182
(dp1061
g206
(dp1062
sS'e31d31a8e11a5a5398dde4d1640b87ce'
p1063
g887
sg302
(dp1064
ssg184
(dp1065
S'66c57891d378ed8c08f4d13a284cce34'
p1066
(dp1067
ssg186
(dp1068
S'80f1dbbba37b1285d33ab1289d496c39'
p1069
(dp1070
sg865
(dp1071
ssg188
(dp1072
g530
(dp1073
sS'2792dc623598555c64f9c96260e905fc'
p1074
g722
sg524
(dp1075
ssg190
(dp1076
S'bf18018a75592f47437447eddffc30c9'
p1077
(dp1078
sS'9fa0000b2fcd8c83e66cc7767c6a2501'
p1079
(dp1080
sS'67301f081c7afa44c525d250f9b6cf33'
p1081
g1003
ssg192
(dp1082
g901
(dp1083
ssg194
(dp1084
g400
(dp1085
sS'538cac24885c97ad0f9b3b982247b8cb'
p1086
(dp1087
ssg196
(dp1088
g580
(dp1089
sS'6100bb986a127099a6aec11d4f8d36c2'
p1090
(dp1091
ssg198
(dp1092
g120
g945
sg496
(dp1093
sS'fca42ef3266420748e9fba5918f3f424'
p1094
(dp1095
ssg200
(dp1096
S'f4749c01c600fb9a309f8d1478be8c45'
p1097
g1060
sS'6c97359a731357bc8cc2712c80bc04f5'
p1098
(dp1099
ssg202
(dp1100
S'6bd9571788b6ed5b79f003d0a803111a'
p1101
(dp1102
sg584
(dp1103
sS'59fa39c325c4e8eb15af0e2513f771ca'
p1104
(dp1105
ssg204
(dp1106
g110
g923
sS'17c695f039736d67ad599ccaa076b46f'
p1107
(dp1108
sS'43569e7fdbe9ec95d3edeab6fdaf746f'
p1109
(dp1110
ssg206
(dp1111
S'2264f04d6e1b9a6ef0aba0afe5a2ed84'
p1112
g1062
ssg208
(dp1113
g889
(dp1114
sg276
(dp1115
ssg210
(dp1116
S'0416fe9e50470368f9663093bb29f86d'
p1117
(dp1118
sS'd63f11ff1e4479b4b60bc2f4769eb6d9'
p1119
(dp1120
sS'628595b71c08a6ac47fad8a4ff985929'
p1121
(dp1122
ssg212
(dp1123
S'6fe7398446e27350a6ab83be4de79377'
p1124
(dp1125
sS'29cbe20b3c999016298e67d0d1114ed9'
p1126
(dp1127
sg1043
g937
ssg214
(dp1128
S'08f8002c4d45f541afa941e2cf4d7bc6'
p1129
(dp1130
sg512
(dp1131
ssg216
(dp1132
g92
g880
sS'c2e4564b23400f438161b9a39438f580'
p1133
g904
sg562
(dp1134
ssg218
(dp1135
g1129
(dp1136
sg974
(dp1137
ssg220
(dp1138
S'3f74704f54e9ca8189993240a20da8ea'
p1139
(dp1140
sg1019
(dp1141
ssg222
(dp1142
g782
(dp1143
sS'7eab081e06809840ec3326d8994df5f8'
p1144
(dp1145
ssg224
(dp1146
S'baba73a8dcb90ae4bc79accdceb54dc7'
p1147
(dp1148
sS'dd89f7414b6d3389b5d9fc120bb6fd61'
p1149
(dp1150
sg60
g804
ssg226
(dp1151
g142
g984
sS'c62e3c841508282f47930ab1e0cee9e9'
p1152
(dp1153
sg270
(dp1154
ssg228
(dp1155
S'2ac948ac33b8c3f2d65685a52b39a519'
p1156
(dp1157
sS'ffe16d914c3dde55a453f84adb3e6092'
p1158
(dp1159
sS'dce8b7ab2fbf09b91125abe45bf39984'
p1160
g734
ssg230
(dp1161
S'62a0894aae2ea33fefca7dfc8cda10ec'
p1162
(dp1163
sS'8fe9b06b0c87fb9ee69f23e304922e43'
p1164
(dp1165
ssg232
(dp1166
g316
(dp1167
sg918
(dp1168
ssg234
(dp1169
S'edbe6c245cce95a1e13dac29be975e45'
p1170
g854
sg568
(dp1171
ssg236
(dp1172
S'd71eb099b3efcc2bfc2a9f08b86ff78b'
p1173
(dp1174
sg256
(dp1175
sg322
(dp1176
ssg238
(dp1177
S'4a0c45c9d4f545957297b028c16e4353'
p1178
(dp1179
sS'bda7b882d54aaaffab24fc06c9a7707f'
p1180
g914
sg630
(dp1181
ssg240
(dp1182
S'4c8df87c987f74c8779bb607bd762dd4'
p1183
(dp1184
ssg242
(dp1185
S'9d5fddfe5a0db613bf90045cec06734c'
p1186
(dp1187
sS'45ee2782bb7876366433d2557703a04a'
p1188
(dp1189
ssg244
(dp1190
S'1f667e2e1a057915b73ffe1c6683cca9'
p1191
(dp1192
sS'c082c6178d97d63b39584cc3e138b337'
p1193
g1008
ssg246
(dp1194
S'c129726418f133bad54c64770373ba6c'
p1195
(dp1196
sS'18c9b7bbdb2e2030a5134b4acb789e69'
p1197
g1071
sg86
g866
ssg248
(dp1198
g492
(dp1199
sS'1ebbd22b2ae26d970197fbe90b8fd252'
p1200
(dp1201
sg262
(dp1202
ssg250
(dp1203
g1117
(dp1204
sg176
g1054
ssg252
(dp1205
S'4c7aa06c3ad929bf2a467b4cd3f099d1'
p1206
g961
sg102
g906
ssg254
(dp1207
g578
(dp1208
sS'332067115bfd5b97b8c0bc2c64f8623f'
p1209
(dp1210
sg220
g1140
ssg256
(dp1211
g388
(dp1212
sg610
(dp1213
sS'673aa7cf2fd0d6072ab6cefae1cb479c'
p1214
g1175
ssg258
(dp1215
S'31254e9aaff01cb4409d3c2709a66a4b'
p1216
(dp1217
sg210
g1120
sg486
(dp1218
ssg260
(dp1219
S'5c08ba4b98647a293e16cec48df67c7e'
p1220
g968
sg312
(dp1221
ssg262
(dp1222
S'90df3ae7a3e64a64beaf61b075946a56'
p1223
(dp1224
sS'1e32e3de3e85e4c246d7d3bb489bac41'
p1225
g1202
sg528
(dp1226
ssg264
(dp1227
g908
g1052
sg360
(dp1228
sg466
(dp1229
ssg266
(dp1230
S'bce4aad5b44fb5dc8aefb5c98cf2eb58'
p1231
(dp1232
sS'6a4277c82a9560d3a79b091ca3496f82'
p1233
g1224
sg606
(dp1234
ssg268
(dp1235
S'70c2cd143d914c5ceba1b00113659d31'
p1236
g871
sg803
g1150
ssg270
(dp1237
g983
g1154
sS'9909cc21396a163eeed6006e000a6465'
p1238
(dp1239
sg428
(dp1240
ssg272
(dp1241
S'2d6a09822570b1b57f3242e51cb50427'
p1242
(dp1243
sg534
(dp1244
sg58
g801
sg622
(dp1245
ssg274
(dp1246
g787
(dp1247
sg358
(dp1248
sS'53825f2e74bc9fe41f70923231dd5bbd'
p1249
(dp1250
ssg276
(dp1251
S'6a3c849ee66fa567d20ef46620f947a2'
p1252
g1115
sg462
(dp1253
sS'd91fc37c1562dbcc71b55e49d986cfe7'
p1254
g892
ssg278
(dp1255
S'3eb870e07ccfd18e8b3bc517afb953a8'
p1256
(dp1257
sg106
g912
ssg280
(dp1258
S'205891670b7a5fd5a96b648ca50369fa'
p1259
(dp1260
sg658
(dp1261
ssg282
(dp1262
g526
(dp1263
sg632
(dp1264
sg1180
g913
ssg284
(dp1265
g908
g1055
ssg286
(dp1266
g476
(dp1267
sg56
g795
sS'a919babd24110152c2ec283cb2cd608d'
p1268
(dp1269
ssg288
(dp1270
S'59daaa1d1d2e40f7ef06f6cc3b12924e'
p1271
(dp1272
sg856
g809
sS'e68978faf7c9826bb37b6938d98b106f'
p1273
g1080
ssg290
(dp1274
S'567d4d0dbbf111e48fdfd404770841a8'
p1275
g1046
sS'2844fddbb522e3b4fed7cd19970adcf7'
p1276
(dp1277
sg636
(dp1278
ssg292
(dp1279
g730
g921
sS'43569e7fdbe9ec95d3edeab6fdaf746f'
p1280
(dp1281
ssg294
(dp1282
S'8a1cd823986639838f37dfa186d0213b'
p1283
(dp1284
sg202
g1102
ssg296
(dp1285
g196
g1091
sS'173631a9070e1e214032bd1d7b693922'
p1286
(dp1287
sg432
(dp1288
ssg298
(dp1289
g620
(dp1290
sg688
(dp1291
sg1160
g733
ssg300
(dp1292
g278
g1257
sS'55c194dc1c0ce036c5bb77202ff9185e'
p1293
(dp1294
ssg302
(dp1295
g574
(dp1296
sg1112
g1064
sg126
g955
ssg304
(dp1297
g448
(dp1298
sS'86896c2841375e425805a5362903d19d'
p1299
(dp1300
sg494
(dp1301
ssg306
(dp1302
g760
(dp1303
sS'66c57891d378ed8c08f4d13a284cce34'
p1304
(dp1305
ssg308
(dp1306
S'18e57c892d50b9310b1a5f278e946821'
p1307
(dp1308
sg570
(dp1309
ssg310
(dp1310
g1236
g870
sg224
g1148
ssg312
(dp1311
g198
g1095
sS'fb83748ab0f9b9fe39ffdddc47590dc3'
p1312
(dp1313
sS'954a0fce79119dddee9835839dd3cde2'
p1314
g1221
ssg314
(dp1315
S'eaff0e05df88fc2c46ed7712b5aa7c75'
p1316
(dp1317
sg490
(dp1318
sS'676917c80ec04c40a1a68072c94f8047'
p1319
(dp1320
ssg316
(dp1321
S'130eef8613b78d2c5a8f03b46dbdb0a4'
p1322
g1167
sS'24cd5316fcb7ee18bb22073fb7d78ec7'
p1323
g917
sg596
(dp1324
ssg318
(dp1325
g50
g783
sg222
g1143
sS'c52070087c68f97fa8b3a81f22367fa7'
p1326
(dp1327
ssg320
(dp1328
S'1edb194ce9573f5c11d85ddbae05a097'
p1329
g985
sS'b473e66e40eecf0bf6b2826c185d8b25'
p1330
g1239
sg648
(dp1331
ssg322
(dp1332
S'6fe7398446e27350a6ab83be4de79377'
p1333
(dp1334
sg1214
g1176
ssg324
(dp1335
S'16bfbe128181718207858ccb940e84ab'
p1336
(dp1337
sg204
g1108
ssg326
(dp1338
g1231
(dp1339
sg1200
(dp1340
ssg328
(dp1341
S'0b1cb8ec21934b4be114f8d774e1f375'
p1342
(dp1343
sg28
g736
ssg330
(dp1344
S'3642b068d7e0bac7235cb4cc34aa5a14'
p1345
(dp1346
sS'ad52afc69d375d58b860d50dc9ce2c9a'
p1347
g836
ssg332
(dp1348
S'196b1109990e4f428b264669dc641528'
p1349
g1040
sg40
g761
sg306
g1303
ssg334
(dp1350
S'114238b144d5151babd4ac0c9e39cc8f'
p1351
(dp1352
sS'363d577470a2677b256177e9f59b864c'
p1353
g815
ssg336
(dp1354
S'955e6892607618017793730321dfd948'
p1355
g764
sS'06b102cbb20e00c2d25409f6d421ebc6'
p1356
g939
ssg338
(dp1357
g1183
(dp1358
sS'2f3f84f5512573301fe76fb6d1477dcb'
p1359
(dp1360
ssg340
(dp1361
S'5b2174cce208998eb659cd0c2624834b'
p1362
(dp1363
sg640
(dp1364
ssg342
(dp1365
g410
(dp1366
sg150
g1000
sS'a83edcc7e037b493c7a6e1dfa26c647a'
p1367
g857
ssg344
(dp1368
S'31bdc854371ae276ab93728f24ee01d7'
p1369
(dp1370
sg614
(dp1371
sS'20da553f8e2bf9a902ad87dbf6b62b9b'
p1372
(dp1373
ssg346
(dp1374
S'bd66e291fd7823042ce2d5f298a2d715'
p1375
(dp1376
sg680
(dp1377
sg100
g900
ssg348
(dp1378
g536
(dp1379
sg1162
(dp1380
ssg350
(dp1381
S'403daefeab9bb4c563d9f319eb54f0d2'
p1382
(dp1383
ssg352
(dp1384
g586
(dp1385
sS'3670d0098ef67c427d97ab174dfac455'
p1386
g833
sg1319
(dp1387
ssg354
(dp1388
g508
(dp1389
sg296
g1287
sg1249
(dp1390
ssg356
(dp1391
g869
g715
sg474
(dp1392
ssg358
(dp1393
S'674f13c99dc6a7b325480d25a9064154'
p1394
(dp1395
sS'6969e3e6c8edb05157319706b793b170'
p1396
g1248
ssg360
(dp1397
S'0df2d88dbf5f0ac28ca38e0e43e04e78'
p1398
g1228
sg242
g1187
sg408
(dp1399
ssg362
(dp1400
g600
(dp1401
sg286
g1269
sS'e4bee6a31d3efef8b2f33b68edc6ea94'
p1402
(dp1403
sg366
(dp1404
ssg364
(dp1405
S'c764171e05660c3b8023f0e4a72c0aa5'
p1406
(dp1407
sg440
(dp1408
ssg366
(dp1409
g1268
g1404
ssg368
(dp1410
g1012
g709
sg1170
g851
ssg370
(dp1411
S'674f13c99dc6a7b325480d25a9064154'
p1412
(dp1413
ssg372
(dp1414
g504
(dp1415
sS'bc5756c8134c1f1c9c76b5b766b58506'
p1416
(dp1417
sg350
g1383
ssg374
(dp1418
g502
(dp1419
sS'5512e9c6fe4016cf01e5002b5769005b'
p1420
(dp1421
sS'0f8ea52f73a48c33b75b4c3b0e95773f'
p1422
(dp1423
ssg376
(dp1424
S'e383b22b7a4ca6e97342541f3c7f3a90'
p1425
(dp1426
sg272
g1243
ssg378
(dp1427
g1345
(dp1428
sg72
g838
ssg380
(dp1429
g334
g1352
sg672
(dp1430
sS'c5fc7e6568d342baffb36f98bd225511'
p1431
(dp1432
ssg382
(dp1433
S'a93ed76720f483034bb903dafdfcfc2b'
p1434
g726
sg576
(dp1435
ssg384
(dp1436
g76
g845
sS'977349c6635bfd8f9b7b6927f15bff2c'
p1437
(dp1438
sg634
(dp1439
ssg386
(dp1440
g678
(dp1441
sS'c0fb30e24f466dcbbc788a676efe89a4'
p1442
(dp1443
sS'e3354efdd4befd2cae852e831ce327bd'
p1444
g997
ssg388
(dp1445
S'c7af22bed4c3b6d74f0b2e7bd41b3014'
p1446
g1212
sg602
(dp1447
ssg390
(dp1448
g290
g1277
sS'3e5c3ed8bedd141444acce2eb20d4f6a'
p1449
g965
sg522
(dp1450
ssg392
(dp1451
g1386
g830
sg74
g842
sg124
g951
ssg394
(dp1452
S'ae610d53012626253b95631e88422b03'
p1453
g703
ssg396
(dp1454
g11
g700
sS'595584c511f14392a046bbc88a1a70e6'
p1455
(dp1456
ssg398
(dp1457
g995
(dp1458
sS'6813c5ef5b03a5fdeb4778d7dc2d4cdd'
p1459
g1443
ssg400
(dp1460
S'f0eefc977290dee4fa7c54650a132721'
p1461
g1085
sg436
(dp1462
sg162
g1023
ssg402
(dp1463
S'57615238a90fba7dcf244e283b1439fc'
p1464
(dp1465
sS'15fccb526fb071018fa606044e869c3d'
p1466
g1141
sg160
g1020
ssg404
(dp1467
g654
(dp1468
sS'f6d7a3fdc93617a4be69e06c75555362'
p1469
g993
ssg406
(dp1470
g532
(dp1471
sg1220
g967
sg1094
g1313
ssg408
(dp1472
S'674f13c99dc6a7b325480d25a9064154'
p1473
(dp1474
sg1186
g1399
sg354
g1390
sg274
g1250
ssg410
(dp1475
g324
g1337
sg999
g1366
ssg412
(dp1476
S'4ce65f4126728ee27522d3a38b1e7092'
p1477
(dp1478
sg666
(dp1479
sg328
g1343
ssg414
(dp1480
g588
(dp1481
sS'dfa331b9f2268c389da153ec5c55cf97'
p1482
(dp1483
ssg416
(dp1484
g670
(dp1485
sg166
g1031
sg98
g897
ssg418
(dp1486
S'9785e069d0d193793a7eb1b6fd44f1e1'
p1487
(dp1488
sS'c082c6178d97d63b39584cc3e138b337'
p1489
g1006
ssg420
(dp1490
g348
g1380
sS'3ce86a970f70410a0f98dc518fb6e357'
p1491
g1163
sS'42d501e4bac0c3f1e4a9e81bdada1f2a'
p1492
(dp1493
ssg422
(dp1494
g1206
g960
ssg424
(dp1495
g24
g728
sg684
(dp1496
sS'1fef71797b8589c13d9e7351c9de8554'
p1497
(dp1498
ssg426
(dp1499
g18
g717
sS'608d610894dc504777699ed006588767'
p1500
(dp1501
ssg428
(dp1502
S'b473e66e40eecf0bf6b2826c185d8b25'
p1503
g1240
sg362
g1403
ssg430
(dp1504
g1347
g839
ssg432
(dp1505
g510
(dp1506
sg1090
g1288
ssg434
(dp1507
S'81d19e6bc793dbed247af7c7421db538'
p1508
g1145
sg1500
(dp1509
sS'f380f5675992e423c339cc362ba84afb'
p1510
g785
ssg436
(dp1511
g1022
g1462
sg230
g1165
sg442
(dp1512
ssg438
(dp1513
g294
g1284
sS'e8c684d8997941ced72624c5d4d7b109'
p1514
(dp1515
sg668
(dp1516
ssg440
(dp1517
g616
(dp1518
sS'f975ceb579405a4051745012090e93b7'
p1519
g1408
ssg442
(dp1520
g420
g1493
sg1164
g1512
ssg444
(dp1521
g1191
(dp1522
sg480
(dp1523
sg572
(dp1524
ssg446
(dp1525
S'074beb4953e904d7180ff0ca97e5ae6a'
p1526
g987
sg594
(dp1527
ssg448
(dp1528
S'854aa1e6e4343516edfc920f98b700e9'
p1529
g1298
sg886
g874
sS'5e26bac7f159a51990fc5dd6d5fc6f60'
p1530
(dp1531
ssg450
(dp1532
S'98ecd4a348256d9bd48dcd406fad2760'
p1533
g1122
sS'4ee4b77c4c444aa5d59b24a457915b7d'
p1534
g752
ssg452
(dp1535
S'b619a340a6704de258016c2b5ba8dc23'
p1536
g943
sg16
g712
sS'0a4b234a35e742cb0a0e62d2766b77ea'
p1537
g1024
ssg454
(dp1538
g130
g964
sS'da3dcecd177f862d4a9f00effe17b9ec'
p1539
g805
ssg456
(dp1540
g376
g1426
sg738
(dp1541
sg520
(dp1542
ssg458
(dp1543
g516
(dp1544
sS'7ed8a313e1443bf9132375b19e88d06b'
p1545
g860
sg1027
(dp1546
ssg460
(dp1547
g258
g1217
sS'd0f8a8609396e334416c70f38b5c0d3e'
p1548
g1015
ssg462
(dp1549
g891
g1253
sg34
g749
ssg464
(dp1550
S'409905f89ce13bd12b76a7f9bbec4aa6'
p1551
(dp1552
sg154
g1010
sg626
(dp1553
ssg466
(dp1554
g1398
g1229
sS'94cf4320d2369960b9ea01019d1cd107'
p1555
(dp1556
sg370
g1413
sS'295f347e422fa51a2f247854cde4c615'
p1557
g1395
sg1249
g1474
ssg468
(dp1558
g1069
(dp1559
sg246
g1196
ssg470
(dp1560
g744
(dp1561
ssg472
(dp1562
g44
g771
sg1037
(dp1563
ssg474
(dp1564
g194
g1087
sS'8ca458ae37615f58c6ba843304a924a1'
p1565
g1392
sg564
(dp1566
ssg476
(dp1567
g240
g1184
sg794
g1267
sS'a0d4299f2c3d35c6272fa442230aa40e'
p1568
g1358
sg582
(dp1569
sg1422
(dp1570
ssg478
(dp1571
S'98ecd4a348256d9bd48dcd406fad2760'
p1572
g1118
sg1534
g751
sg250
g1204
ssg480
(dp1573
S'2b137df6e00a416adcae4393e6dd05db'
p1574
g1523
sg304
g1300
ssg482
(dp1575
S'eecf178578573c4f5622cde3521a9c06'
p1576
(dp1577
sg458
g1546
sg164
g1028
ssg484
(dp1578
g686
(dp1579
sg1353
g816
ssg486
(dp1580
g380
g1432
sg1119
g1218
ssg488
(dp1581
g1152
(dp1582
sS'86fbf253371ffcfd79203d86ae82ccc2'
p1583
g864
ssg490
(dp1584
g280
g1260
sS'd590faa196b118dbd310fb8f7ac52ab9'
p1585
g1318
ssg492
(dp1586
g644
(dp1587
sg1225
g1199
sS'5e80027462948eb147d5e20d04fa034e'
p1588
g1339
sg266
g1232
ssg494
(dp1589
g1529
g1301
sg518
(dp1590
sg396
g1456
ssg496
(dp1591
g552
(dp1592
sg944
g1093
ssg498
(dp1593
g70
g832
sg1049
(dp1594
ssg500
(dp1595
S'74dfa8930f0d9177d378945dbba7d642'
p1596
(dp1597
sg192
g1083
sS'b88711a40f2c013a10dde9bb5fc08be0'
p1598
g902
ssg502
(dp1599
S'0a648556b537f9348bddc32480df1700'
p1600
g1419
sg674
(dp1601
sg340
g1363
ssg504
(dp1602
g1382
g1415
sg464
g1552
ssg506
(dp1603
g1349
g1042
sS'b54eb15373fb0ad29fa4938932095a30'
p1604
g1305
sg935
(dp1605
sg184
g1067
ssg508
(dp1606
S'674f13c99dc6a7b325480d25a9064154'
p1607
g1556
sg1286
g1389
ssg510
(dp1608
S'879baa52d1c939fb8165487c85ed0a6c'
p1609
g1506
sg438
g1515
ssg512
(dp1610
S'4c51a2fbaf61639f4fb99c3f65b135e3'
p1611
g1131
sg136
g975
sS'a3801ac7f7fdd93f54e748f13929fe9e'
p1612
g1137
ssg514
(dp1613
S'fa0425533d15696a4267bc3b066694ab'
p1614
g799
sg482
g1577
ssg516
(dp1615
S'268773e61c84c8713c1a3925af497071'
p1616
g1544
sg36
g754
ssg518
(dp1617
g1453
g702
sg414
g1483
sg1455
g1590
ssg520
(dp1618
S'41c47f5caebd82788a35e113d0acdde6'
p1619
g1189
sg1425
g1542
sS'9bd3201720e60e35457da7c8923cb36c'
p1620
g741
ssg522
(dp1621
S'567d4d0dbbf111e48fdfd404770841a8'
p1622
g1048
sg1276
g1450
ssg524
(dp1623
S'705f6c3297f62c769bf97e2c73c7ae23'
p1624
g1075
sg424
g1498
ssg526
(dp1625
S'5a360f6423ae7b59b2e7af730654cc08'
p1626
g1263
ssg528
(dp1627
g612
(dp1628
sS'e1ecda7920fbf0d112a70c533044e376'
p1629
g1157
sS'6a4277c82a9560d3a79b091ca3496f82'
p1630
g1226
ssg530
(dp1631
g1624
g1073
sg398
g1458
sg148
g996
ssg532
(dp1632
g128
g959
sS'fb83748ab0f9b9fe39ffdddc47590dc3'
p1633
g1471
ssg534
(dp1634
g800
g1244
ssg536
(dp1635
S'8548bb0592c24dd4e3fcb85783148570'
p1636
g1379
sg418
g1488
ssg538
(dp1637
S'42131bad3ded1ed4c0d25500772e3003'
p1638
(dp1639
sg470
g1561
sg32
g745
ssg540
(dp1640
g52
g788
sS'a52b78a3fbd0393a60e77d6f5d751f69'
p1641
(dp1642
sS'6969e3e6c8edb05157319706b793b170'
p1643
g1247
ssg542
(dp1644
g1206
g957
ssg544
(dp1645
g807
(dp1646
sg1079
g1272
ssg546
(dp1647
g412
g1478
sS'797d200dbc4a9d78de77f694638dddb9'
p1648
g947
ssg548
(dp1649
S'8127cfe4ed949a9a419a221efee57382'
p1650
g1531
sg875
(dp1651
ssg550
(dp1652
g690
(dp1653
sg775
(dp1654
ssg552
(dp1655
g426
g1501
sS'7e0caf2d8dccb63a30115ae83e7f407c'
p1656
g1592
sg434
g1509
ssg554
(dp1657
g472
g1563
sg1548
g1014
sg170
g1038
ssg556
(dp1658
g1098
(dp1659
ssg558
(dp1660
g330
g1346
sg378
g1428
sS'6b293c8e4e3295bc4186de933e4c547a'
p1661
(dp1662
ssg560
(dp1663
g48
g779
sS'1fc57b7d26636f44f71c617730fd90ab'
p1664
(dp1665
ssg562
(dp1666
g879
g1134
sg590
(dp1667
sg78
g848
ssg564
(dp1668
g456
g1541
sg30
g739
sg1086
g1566
ssg566
(dp1669
g861
g1026
ssg568
(dp1670
g308
g1308
sS'33e834c2cfa965e149e53c1e70d41e2c'
p1671
g1171
ssg570
(dp1672
g90
g876
sS'3520c496da7b1bf98bba1d40a3e735dd'
p1673
g1309
sg548
g1651
ssg572
(dp1674
g1574
g1524
sS'172e38c51467e0ae7aa6ef1f40a50224'
p1675
g1281
sg922
g1110
ssg574
(dp1676
g556
g1659
sg1058
g825
sg200
g1099
sg954
g1296
ssg576
(dp1677
g248
g1201
sS'e0b050714743db2a6c7dfd1cf1553b36'
p1678
g1435
sg326
g1340
ssg578
(dp1679
g1139
g1208
sg402
g1465
ssg580
(dp1680
S'3a416ab96ec413547ddb03d0fefc249e'
p1681
g1089
sg560
g1665
sg628
(dp1682
ssg582
(dp1683
g1183
g1569
sS'0a648556b537f9348bddc32480df1700'
p1684
g1421
ssg584
(dp1685
S'9ce9271d87be6287e0b50efff59fea57'
p1686
g1103
ssg586
(dp1687
S'd590faa196b118dbd310fb8f7ac52ab9'
p1688
g1317
sS'f5d67969b9605bdbe39e7753b3c3cd8e'
p1689
g1385
ssg588
(dp1690
S'f6fdcbb72c2c4b21dd4214c756cd9f85'
p1691
g1481
sg538
g1639
ssg590
(dp1692
S'e67bd8bff8d21c3af2d852521a481277'
p1693
g882
sg847
g1667
ssg592
(dp1694
S'bc5756c8134c1f1c9c76b5b766b58506'
p1695
(dp1696
sg190
g1078
sS'2e71e2f95206335aea267b089be4ba05'
p1697
g894
ssg594
(dp1698
g254
g1210
sS'ba702c318aea035dd51f7877e6599637'
p1699
g1527
sg662
(dp1700
ssg596
(dp1701
g916
g1324
ssg598
(dp1702
g1293
(dp1703
ssg600
(dp1704
g1268
g1401
ssg602
(dp1705
S'bc8bbe54677b504cf17d3089878a3e0a'
p1706
g1447
sg598
g1703
sg300
g1294
ssg604
(dp1707
S'682129d0c6ebf62888662e48c38b7005'
p1708
g780
sg232
g1168
sg108
g919
ssg606
(dp1709
g1223
g1234
sg550
g1654
sg46
g776
ssg608
(dp1710
S'4c8df87c987f74c8779bb607bd762dd4'
p1711
g1570
sg374
g1423
sS'3b3fbe4d56e1687ece14bf2001eaeda4'
p1712
g797
sg1359
(dp1713
ssg610
(dp1714
S'c698f52b01efd26f2cc40c21108e5664'
p1715
g1334
sg1446
g1213
sS'5b47ce71055d50f1a5b87d6cc43e8c24'
p1716
g1125
ssg612
(dp1717
g1156
g1628
sS'5b47ce71055d50f1a5b87d6cc43e8c24'
p1718
g1127
ssg614
(dp1719
g14
g707
sg138
g978
sS'fdb82e135729290dbe39e38d4ee608ad'
p1720
g1371
ssg616
(dp1721
g140
g981
sg646
(dp1722
sS'b8f223b570eb038b0eff493116038220'
p1723
g1518
ssg618
(dp1724
g236
g1174
sS'6e6005380887c166770707d58bcfe646'
p1725
g747
ssg620
(dp1726
S'75c10259ba1cc86df036b2a95c6d9f41'
p1727
g1290
sS'e1ecda7920fbf0d112a70c533044e376'
p1728
g1159
ssg622
(dp1729
g800
g1245
ssg624
(dp1730
g670
(dp1731
sg1720
g1370
ssg626
(dp1732
g444
g1522
sg244
g1192
sg1009
g1553
ssg628
(dp1733
g1664
g1682
sg338
g1360
sS'0f8ea52f73a48c33b75b4c3b0e95773f'
p1734
g1713
ssg630
(dp1735
g174
g1050
sS'1f4f7052a7f0cf41e96ea6227042e077'
p1736
g1181
sg498
g1594
ssg632
(dp1737
g1626
g1264
sS'1f4f7052a7f0cf41e96ea6227042e077'
p1738
g1179
ssg634
(dp1739
g506
g1605
sg116
g936
sg844
g1439
ssg636
(dp1740
g1045
g1278
sg384
g1438
ssg638
(dp1741
g146
g992
sg1356
g940
ssg640
(dp1742
g346
g1376
sS'a645c492690c97f9af8c2f96cb8845d3'
p1743
g1364
ssg642
(dp1744
g158
g1017
sg1583
g867
ssg644
(dp1745
g1231
g1587
ssg646
(dp1746
g812
g928
sg980
g1722
ssg648
(dp1747
g1238
g1331
sS'e67bd8bff8d21c3af2d852521a481277'
p1748
g884
ssg650
(dp1749
S'1ad8e049f21278fdf749a52f6f4298fc'
p1750
g705
sS'76b437eb106112784a471e565bbbd595'
p1751
g977
sg54
g792
ssg652
(dp1752
g372
g1417
sg1077
g1696
sg719
g1034
ssg654
(dp1753
g468
g1559
sg186
g1070
sS'70f166666183fcd58861e763d93a8902'
p1754
g1468
ssg656
(dp1755
S'de3c0a0a86bf57659e95a232abd4f6e2'
p1756
(dp1757
sg682
(dp1758
ssg658
(dp1759
S'7516a21bd5d75251698c9d0bd65f5c1d'
p1760
g1261
sg318
g1327
ssg660
(dp1761
g1712
g796
sg132
g970
ssg662
(dp1762
g1209
g1700
sg344
g1373
ssg664
(dp1763
S'80952bf61ec2f4a82196f85175df94d8'
p1764
g756
sg656
g1757
ssg666
(dp1765
g1342
g1479
ssg668
(dp1766
g1283
g1516
sg1686
g1105
ssg670
(dp1767
g624
g1731
sg416
g1485
ssg672
(dp1768
g208
g1114
sg1351
g1430
sg96
g890
ssg674
(dp1769
g1362
g1601
sg540
g1642
ssg676
(dp1770
g558
g1662
sS'b4ebf83cb0df9650c1f38da4a32bd9e5'
p1771
g789
ssg678
(dp1772
g1459
g1441
ssg680
(dp1773
g899
g1377
sg500
g1597
ssg682
(dp1774
g544
g1646
sS'4bae368808488236358b6b80a3651b15'
p1775
g1758
sg62
g808
ssg684
(dp1776
g214
g1130
sg218
g1136
sg727
g1496
ssg686
(dp1777
g226
g1153
sS'0d6318689039fc8cd4985263a8166cca'
p1778
g1579
sS'912ac0469b04143a3578a2377777f0cb'
p1779
g1582
ssg688
(dp1780
g1727
g1291
sg364
g1407
ssg690
(dp1781
S'510730b0e9be193442f837d4d6e5e539'
p1782
g1653
sg314
g1320
sS'f5d67969b9605bdbe39e7753b3c3cd8e'
p1783
g1387
sssS'adj'
p1784
g697
sbsS'save_tmp'
p1785
I01
sS'use_cloud'
p1786
I01
sS'state'
p1787
(isrc.logic.state
State
p1788
(dp1789
S'map'
p1790
(isrc.logic.map
Map
p1791
(dp1792
S'tiles'
p1793
(lp1794
(lp1795
(isrc.logic.tile
Tile
p1796
(dp1797
g1790
g1791
sS'color'
p1798
(I20
I20
I20
tp1799
sS'surface'
p1800
NsS'v'
p1801
I0
sS'y'
p1802
I0
sS'x'
p1803
I0
sS'se'
p1804
Nsba(isrc.logic.tile
Tile
p1805
(dp1806
g1790
g1791
sg1798
(I50
I50
I50
tp1807
sg1800
Nsg1801
I1
sg1802
I1
sg1803
I0
sg1804
Nsba(isrc.logic.tile
Tile
p1808
(dp1809
g1790
g1791
sg1798
g1799
sg1800
Nsg1801
I0
sg1802
I2
sg1803
I0
sg1804
(isrc.logic.snake
SnakeElement
p1810
(dp1811
g1802
I2
sg1803
I0
sS'snake'
p1812
(isrc.logic.snake
Snake
p1813
(dp1814
g1798
(I0
I255
I0
tp1815
sg1790
g1791
sS'elements'
p1816
(lp1817
g1810
a(isrc.logic.snake
SnakeElement
p1818
(dp1819
g1802
I2
sg1803
I1
sg1812
g1813
sS'order'
p1820
Nsba(isrc.logic.snake
SnakeElement
p1821
(dp1822
g1802
I1
sg1803
I1
sg1812
g1813
sg1820
Nsbasg1800
Nsg1801
VG
p1823
sbsg1820
Nsbsba(isrc.logic.tile
Tile
p1824
(dp1825
g1790
g1791
sg1798
g1807
sg1800
Nsg1801
I1
sg1802
I3
sg1803
I0
sg1804
Nsbaa(lp1826
(isrc.logic.tile
Tile
p1827
(dp1828
g1790
g1791
sg1798
g1799
sg1800
Nsg1801
I0
sg1802
I0
sg1803
I1
sg1804
Nsba(isrc.logic.tile
Tile
p1829
(dp1830
g1790
g1791
sg1798
g1799
sg1800
Nsg1801
I0
sg1802
I1
sg1803
I1
sg1804
g1821
sba(isrc.logic.tile
Tile
p1831
(dp1832
g1790
g1791
sg1798
g1799
sg1800
Nsg1801
I0
sg1802
I2
sg1803
I1
sg1804
g1818
sba(isrc.logic.tile
Tile
p1833
(dp1834
g1790
g1791
sg1798
g1799
sg1800
Nsg1801
I0
sg1802
I3
sg1803
I1
sg1804
(isrc.logic.snake
SnakeElement
p1835
(dp1836
g1802
I3
sg1803
I1
sg1812
(isrc.logic.snake
Snake
p1837
(dp1838
g1798
(I255
I255
I0
tp1839
sg1790
g1791
sg1816
(lp1840
g1835
asg1800
Nsg1801
VY
p1841
sbsg1820
Nsbsbaa(lp1842
(isrc.logic.tile
Tile
p1843
(dp1844
g1790
g1791
sg1798
g1799
sg1800
Nsg1801
I0
sg1802
I0
sg1803
I2
sg1804
(isrc.logic.snake
SnakeElement
p1845
(dp1846
g1802
I0
sg1803
I2
sg1812
(isrc.logic.snake
Snake
p1847
(dp1848
g1798
(I255
I0
I0
tp1849
sg1790
g1791
sg1816
(lp1850
g1845
asg1800
Nsg1801
VR
p1851
sbsg1820
Nsbsba(isrc.logic.tile
Tile
p1852
(dp1853
g1790
g1791
sg1798
g1807
sg1800
Nsg1801
I1
sg1802
I1
sg1803
I2
sg1804
Nsba(isrc.logic.tile
Tile
p1854
(dp1855
g1790
g1791
sg1798
g1799
sg1800
Nsg1801
I0
sg1802
I2
sg1803
I2
sg1804
(isrc.logic.snake
SnakeElement
p1856
(dp1857
g1802
I2
sg1803
I2
sg1812
(isrc.logic.snake
Snake
p1858
(dp1859
g1798
(I0
I0
I255
tp1860
sg1790
g1791
sg1816
(lp1861
g1856
a(isrc.logic.snake
SnakeElement
p1862
(dp1863
g1802
I2
sg1803
I3
sg1812
g1858
sg1820
Nsba(isrc.logic.snake
SnakeElement
p1864
(dp1865
g1802
I1
sg1803
I3
sg1812
g1858
sg1820
Nsba(isrc.logic.snake
SnakeElement
p1866
(dp1867
g1802
I0
sg1803
I3
sg1812
g1858
sg1820
Nsbasg1800
Nsg1801
VB
p1868
sbsg1820
Nsbsba(isrc.logic.tile
Tile
p1869
(dp1870
g1790
g1791
sg1798
g1807
sg1800
Nsg1801
I1
sg1802
I3
sg1803
I2
sg1804
Nsbaa(lp1871
(isrc.logic.tile
Tile
p1872
(dp1873
g1790
g1791
sg1798
(I0
I102
I0
tp1874
sg1800
Nsg1801
Vg
p1875
sg1802
I0
sg1803
I3
sg1804
g1866
sba(isrc.logic.tile
Tile
p1876
(dp1877
g1790
g1791
sg1798
g1874
sg1800
Nsg1801
Vg
p1878
sg1802
I1
sg1803
I3
sg1804
g1864
sba(isrc.logic.tile
Tile
p1879
(dp1880
g1790
g1791
sg1798
g1874
sg1800
Nsg1801
Vg
p1881
sg1802
I2
sg1803
I3
sg1804
g1862
sba(isrc.logic.tile
Tile
p1882
(dp1883
g1790
g1791
sg1798
g1807
sg1800
Nsg1801
I1
sg1802
I3
sg1803
I3
sg1804
Nsbaasg1800
NsS'n'
p1884
I4
sS'size_px'
p1885
I240
sS'y_offset'
p1886
I0
sS'x_offset'
p1887
I0
sbsS'move'
p1888
NsS'snakes'
p1889
(lp1890
g1837
ag1858
ag1847
ag1813
asS'parent_state'
p1891
(isrc.logic.state
State
p1892
(dp1893
g1790
(isrc.logic.map
Map
p1894
(dp1895
g1793
(lp1896
(lp1897
(isrc.logic.tile
Tile
p1898
(dp1899
g1790
g1894
sg1798
g1799
sg1800
Nsg1801
I0
sg1802
I0
sg1803
I0
sg1804
Nsba(isrc.logic.tile
Tile
p1900
(dp1901
g1790
g1894
sg1798
g1807
sg1800
Nsg1801
I1
sg1802
I1
sg1803
I0
sg1804
Nsba(isrc.logic.tile
Tile
p1902
(dp1903
g1790
g1894
sg1798
g1799
sg1800
Nsg1801
I0
sg1802
I2
sg1803
I0
sg1804
(isrc.logic.snake
SnakeElement
p1904
(dp1905
g1802
I2
sg1803
I0
sg1812
(isrc.logic.snake
Snake
p1906
(dp1907
g1798
g1815
sg1790
g1894
sg1816
(lp1908
g1904
a(isrc.logic.snake
SnakeElement
p1909
(dp1910
g1802
I2
sg1803
I1
sg1812
g1906
sg1820
Nsba(isrc.logic.snake
SnakeElement
p1911
(dp1912
g1802
I1
sg1803
I1
sg1812
g1906
sg1820
Nsbasg1800
Nsg1801
VG
p1913
sbsg1820
Nsbsba(isrc.logic.tile
Tile
p1914
(dp1915
g1790
g1894
sg1798
g1807
sg1800
Nsg1801
I1
sg1802
I3
sg1803
I0
sg1804
Nsbaa(lp1916
(isrc.logic.tile
Tile
p1917
(dp1918
g1790
g1894
sg1798
g1799
sg1800
Nsg1801
I0
sg1802
I0
sg1803
I1
sg1804
Nsba(isrc.logic.tile
Tile
p1919
(dp1920
g1790
g1894
sg1798
g1799
sg1800
Nsg1801
I0
sg1802
I1
sg1803
I1
sg1804
g1911
sba(isrc.logic.tile
Tile
p1921
(dp1922
g1790
g1894
sg1798
g1799
sg1800
Nsg1801
I0
sg1802
I2
sg1803
I1
sg1804
g1909
sba(isrc.logic.tile
Tile
p1923
(dp1924
g1790
g1894
sg1798
g1799
sg1800
Nsg1801
I0
sg1802
I3
sg1803
I1
sg1804
(isrc.logic.snake
SnakeElement
p1925
(dp1926
g1802
I3
sg1803
I1
sg1812
(isrc.logic.snake
Snake
p1927
(dp1928
g1798
g1839
sg1790
g1894
sg1816
(lp1929
g1925
asg1800
Nsg1801
VY
p1930
sbsg1820
Nsbsbaa(lp1931
(isrc.logic.tile
Tile
p1932
(dp1933
g1790
g1894
sg1798
g1799
sg1800
Nsg1801
I0
sg1802
I0
sg1803
I2
sg1804
(isrc.logic.snake
SnakeElement
p1934
(dp1935
g1802
I0
sg1803
I2
sg1812
(isrc.logic.snake
Snake
p1936
(dp1937
g1798
g1849
sg1790
g1894
sg1816
(lp1938
g1934
asg1800
Nsg1801
VR
p1939
sbsg1820
Nsbsba(isrc.logic.tile
Tile
p1940
(dp1941
g1790
g1894
sg1798
g1807
sg1800
Nsg1801
I1
sg1802
I1
sg1803
I2
sg1804
Nsba(isrc.logic.tile
Tile
p1942
(dp1943
g1790
g1894
sg1798
g1799
sg1800
Nsg1801
I0
sg1802
I2
sg1803
I2
sg1804
(isrc.logic.snake
SnakeElement
p1944
(dp1945
g1802
I2
sg1803
I2
sg1812
(isrc.logic.snake
Snake
p1946
(dp1947
g1798
g1860
sg1790
g1894
sg1816
(lp1948
g1944
a(isrc.logic.snake
SnakeElement
p1949
(dp1950
g1802
I2
sg1803
I3
sg1812
g1946
sg1820
Nsba(isrc.logic.snake
SnakeElement
p1951
(dp1952
g1802
I1
sg1803
I3
sg1812
g1946
sg1820
Nsba(isrc.logic.snake
SnakeElement
p1953
(dp1954
g1802
I0
sg1803
I3
sg1812
g1946
sg1820
Nsbasg1800
Nsg1801
VB
p1955
sbsg1820
Nsbsba(isrc.logic.tile
Tile
p1956
(dp1957
g1790
g1894
sg1798
g1807
sg1800
Nsg1801
I1
sg1802
I3
sg1803
I2
sg1804
Nsbaa(lp1958
(isrc.logic.tile
Tile
p1959
(dp1960
g1790
g1894
sg1798
g1874
sg1800
Nsg1801
Vg
p1961
sg1802
I0
sg1803
I3
sg1804
g1953
sba(isrc.logic.tile
Tile
p1962
(dp1963
g1790
g1894
sg1798
g1874
sg1800
Nsg1801
Vg
p1964
sg1802
I1
sg1803
I3
sg1804
g1951
sba(isrc.logic.tile
Tile
p1965
(dp1966
g1790
g1894
sg1798
g1874
sg1800
Nsg1801
Vg
p1967
sg1802
I2
sg1803
I3
sg1804
g1949
sba(isrc.logic.tile
Tile
p1968
(dp1969
g1790
g1894
sg1798
g1807
sg1800
Nsg1801
I1
sg1802
I3
sg1803
I3
sg1804
Nsbaasg1800
Nsg1884
I4
sg1885
I240
sg1886
I0
sg1887
I0
sbsg1888
Nsg1889
(lp1970
g1927
ag1946
ag1936
ag1906
asg1891
NsbsbsS'debug_info'
p1971
NsS'MAX_RECURSION_DEPTH'
p1972
I10000
sS'l_shortest'
p1973
I10
sS'sols'
p1974
(lp1975
(lp1976
S'871805628cc89e822f8d3e9c536b1b7e'
p1977
ag416
ag98
ag592
ag190
ag1079
ag856
ag82
ag342
ag410
ag324
aa(lp1978
g1977
ag416
ag98
ag592
ag190
ag1079
ag856
ag82
ag342
ag410
ag324
ag204
aa(lp1979
g1977
ag416
ag98
ag592
ag1695
ag372
ag504
ag464
ag626
ag444
ag572
ag1675
ag730
aa(lp1980
g1977
ag416
ag98
ag592
ag190
ag1081
ag765
ag931
ag767
ag972
ag744
ag1638
ag1691
aa(lp1981
g1977
ag416
ag98
ag592
ag1695
ag372
ag504
ag464
ag626
ag444
ag480
ag304
ag494
ag518
aa(lp1982
g1977
ag416
ag98
ag592
ag1695
ag372
ag504
ag464
ag626
ag444
ag480
ag304
ag494
ag396
ag11
aa(lp1983
g1977
ag416
ag98
ag592
ag190
ag1079
ag1271
ag807
ag1775
ag1756
ag1764
ag757
ag770
ag1037
ag1548
ag460
ag258
ag210
ag1117
ag1534
ag753
ag1616
ag1027
aa(lp1984
g1977
ag416
ag98
ag592
ag190
ag1079
ag1271
ag807
ag1775
ag1756
ag1764
ag757
ag770
ag1037
ag1548
ag460
ag258
ag210
ag1117
ag1534
ag753
ag1616
ag1027
ag164
aa(lp1985
g1977
ag416
ag98
ag592
ag190
ag1079
ag1271
ag807
ag1775
ag1756
ag1764
ag757
ag770
ag1037
ag1548
ag460
ag258
ag210
ag1117
ag1534
ag753
ag1616
ag1027
ag1576
aa(lp1986
g1977
ag416
ag98
ag592
ag190
ag1079
ag1271
ag807
ag1775
ag1756
ag1764
ag757
ag770
ag1037
ag1548
ag1016
ag1583
ag488
ag1152
ag226
ag142
ag320
ag648
ag1748
ag879
aa(lp1987
g1977
ag416
ag98
ag592
ag190
ag1079
ag1271
ag807
ag1775
ag1756
ag1764
ag757
ag770
ag1037
ag1548
ag1016
ag1583
ag488
ag1152
ag226
ag142
ag320
ag648
ag1748
ag879
ag1133
aa(lp1988
g1977
ag416
ag98
ag592
ag190
ag1079
ag1271
ag807
ag1775
ag1756
ag1764
ag757
ag770
ag1037
ag1548
ag1016
ag1583
ag488
ag1152
ag226
ag142
ag320
ag648
ag1748
ag879
ag562
aa(lp1989
g1977
ag416
ag98
ag592
ag190
ag1079
ag1271
ag807
ag1775
ag1756
ag1764
ag757
ag770
ag1037
ag1548
ag460
ag258
ag486
ag380
ag672
ag96
ag891
ag462
ag34
ag618
ag236
ag256
ag388
ag602
ag300
ag278
aa(lp1990
g1977
ag416
ag98
ag592
ag190
ag1079
ag1271
ag807
ag1775
ag1756
ag1764
ag757
ag770
ag1037
ag1548
ag460
ag258
ag486
ag380
ag672
ag96
ag891
ag462
ag34
ag618
ag236
ag256
ag388
ag602
ag300
ag278
ag106
aa(lp1991
g1977
ag416
ag98
ag592
ag190
ag1079
ag1271
ag807
ag1775
ag1756
ag1764
ag757
ag770
ag1037
ag1548
ag460
ag258
ag486
ag380
ag672
ag96
ag891
ag462
ag34
ag618
ag236
ag256
ag388
ag602
ag300
ag278
ag106
ag282
aa(lp1992
g1977
ag416
ag98
ag592
ag190
ag1079
ag1271
ag807
ag1775
ag1756
ag1764
ag757
ag770
ag1037
ag1548
ag460
ag258
ag486
ag380
ag334
ag1353
ag812
ag925
ag980
ag1723
ag1519
ag1406
ag1727
ag1160
ag735
ag1342
ag1477
ag1648
aa(lp1993
g1977
ag416
ag98
ag592
ag1695
ag372
ag504
ag464
ag154
ag1005
ag1487
ag1636
ag1162
ag1491
ag1164
ag1022
ag1461
ag1086
ag1565
ag869
ag88
ag310
ag224
ag60
ag454
ag130
ag390
ag290
ag1275
ag1049
ag498
ag70
ag392
ag124
aa(lp1994
g1977
ag416
ag98
ag592
ag1695
ag372
ag504
ag464
ag154
ag1005
ag1487
ag1636
ag1162
ag1491
ag1164
ag1022
ag1461
ag1086
ag1565
ag869
ag88
ag310
ag224
ag60
ag454
ag130
ag390
ag290
ag1275
ag1049
ag498
ag70
ag392
ag74
ag66
aasS'use_temp'
p1995
I01
sS'quit_on_first'
p1996
I00
sb.